
ctarget:     file format elf64-x86-64


Disassembly of section .init:

0000000000400bb0 <_init>:
  400bb0:	48 83 ec 08          	sub    $0x8,%rsp
  400bb4:	48 8b 05 3d 34 20 00 	mov    0x20343d(%rip),%rax        # 603ff8 <__gmon_start__>
  400bbb:	48 85 c0             	test   %rax,%rax
  400bbe:	74 02                	je     400bc2 <_init+0x12>
  400bc0:	ff d0                	callq  *%rax
  400bc2:	48 83 c4 08          	add    $0x8,%rsp
  400bc6:	c3                   	retq   

Disassembly of section .plt:

0000000000400bd0 <.plt>:
  400bd0:	ff 35 32 34 20 00    	pushq  0x203432(%rip)        # 604008 <_GLOBAL_OFFSET_TABLE_+0x8>
  400bd6:	ff 25 34 34 20 00    	jmpq   *0x203434(%rip)        # 604010 <_GLOBAL_OFFSET_TABLE_+0x10>
  400bdc:	0f 1f 40 00          	nopl   0x0(%rax)

0000000000400be0 <strcasecmp@plt>:
  400be0:	ff 25 32 34 20 00    	jmpq   *0x203432(%rip)        # 604018 <strcasecmp@GLIBC_2.2.5>
  400be6:	68 00 00 00 00       	pushq  $0x0
  400beb:	e9 e0 ff ff ff       	jmpq   400bd0 <.plt>

0000000000400bf0 <__errno_location@plt>:
  400bf0:	ff 25 2a 34 20 00    	jmpq   *0x20342a(%rip)        # 604020 <__errno_location@GLIBC_2.2.5>
  400bf6:	68 01 00 00 00       	pushq  $0x1
  400bfb:	e9 d0 ff ff ff       	jmpq   400bd0 <.plt>

0000000000400c00 <srandom@plt>:
  400c00:	ff 25 22 34 20 00    	jmpq   *0x203422(%rip)        # 604028 <srandom@GLIBC_2.2.5>
  400c06:	68 02 00 00 00       	pushq  $0x2
  400c0b:	e9 c0 ff ff ff       	jmpq   400bd0 <.plt>

0000000000400c10 <strncmp@plt>:
  400c10:	ff 25 1a 34 20 00    	jmpq   *0x20341a(%rip)        # 604030 <strncmp@GLIBC_2.2.5>
  400c16:	68 03 00 00 00       	pushq  $0x3
  400c1b:	e9 b0 ff ff ff       	jmpq   400bd0 <.plt>

0000000000400c20 <strcpy@plt>:
  400c20:	ff 25 12 34 20 00    	jmpq   *0x203412(%rip)        # 604038 <strcpy@GLIBC_2.2.5>
  400c26:	68 04 00 00 00       	pushq  $0x4
  400c2b:	e9 a0 ff ff ff       	jmpq   400bd0 <.plt>

0000000000400c30 <puts@plt>:
  400c30:	ff 25 0a 34 20 00    	jmpq   *0x20340a(%rip)        # 604040 <puts@GLIBC_2.2.5>
  400c36:	68 05 00 00 00       	pushq  $0x5
  400c3b:	e9 90 ff ff ff       	jmpq   400bd0 <.plt>

0000000000400c40 <write@plt>:
  400c40:	ff 25 02 34 20 00    	jmpq   *0x203402(%rip)        # 604048 <write@GLIBC_2.2.5>
  400c46:	68 06 00 00 00       	pushq  $0x6
  400c4b:	e9 80 ff ff ff       	jmpq   400bd0 <.plt>

0000000000400c50 <mmap@plt>:
  400c50:	ff 25 fa 33 20 00    	jmpq   *0x2033fa(%rip)        # 604050 <mmap@GLIBC_2.2.5>
  400c56:	68 07 00 00 00       	pushq  $0x7
  400c5b:	e9 70 ff ff ff       	jmpq   400bd0 <.plt>

0000000000400c60 <printf@plt>:
  400c60:	ff 25 f2 33 20 00    	jmpq   *0x2033f2(%rip)        # 604058 <printf@GLIBC_2.2.5>
  400c66:	68 08 00 00 00       	pushq  $0x8
  400c6b:	e9 60 ff ff ff       	jmpq   400bd0 <.plt>

0000000000400c70 <memset@plt>:
  400c70:	ff 25 ea 33 20 00    	jmpq   *0x2033ea(%rip)        # 604060 <memset@GLIBC_2.2.5>
  400c76:	68 09 00 00 00       	pushq  $0x9
  400c7b:	e9 50 ff ff ff       	jmpq   400bd0 <.plt>

0000000000400c80 <alarm@plt>:
  400c80:	ff 25 e2 33 20 00    	jmpq   *0x2033e2(%rip)        # 604068 <alarm@GLIBC_2.2.5>
  400c86:	68 0a 00 00 00       	pushq  $0xa
  400c8b:	e9 40 ff ff ff       	jmpq   400bd0 <.plt>

0000000000400c90 <close@plt>:
  400c90:	ff 25 da 33 20 00    	jmpq   *0x2033da(%rip)        # 604070 <close@GLIBC_2.2.5>
  400c96:	68 0b 00 00 00       	pushq  $0xb
  400c9b:	e9 30 ff ff ff       	jmpq   400bd0 <.plt>

0000000000400ca0 <read@plt>:
  400ca0:	ff 25 d2 33 20 00    	jmpq   *0x2033d2(%rip)        # 604078 <read@GLIBC_2.2.5>
  400ca6:	68 0c 00 00 00       	pushq  $0xc
  400cab:	e9 20 ff ff ff       	jmpq   400bd0 <.plt>

0000000000400cb0 <signal@plt>:
  400cb0:	ff 25 ca 33 20 00    	jmpq   *0x2033ca(%rip)        # 604080 <signal@GLIBC_2.2.5>
  400cb6:	68 0d 00 00 00       	pushq  $0xd
  400cbb:	e9 10 ff ff ff       	jmpq   400bd0 <.plt>

0000000000400cc0 <gethostbyname@plt>:
  400cc0:	ff 25 c2 33 20 00    	jmpq   *0x2033c2(%rip)        # 604088 <gethostbyname@GLIBC_2.2.5>
  400cc6:	68 0e 00 00 00       	pushq  $0xe
  400ccb:	e9 00 ff ff ff       	jmpq   400bd0 <.plt>

0000000000400cd0 <fprintf@plt>:
  400cd0:	ff 25 ba 33 20 00    	jmpq   *0x2033ba(%rip)        # 604090 <fprintf@GLIBC_2.2.5>
  400cd6:	68 0f 00 00 00       	pushq  $0xf
  400cdb:	e9 f0 fe ff ff       	jmpq   400bd0 <.plt>

0000000000400ce0 <strtol@plt>:
  400ce0:	ff 25 b2 33 20 00    	jmpq   *0x2033b2(%rip)        # 604098 <strtol@GLIBC_2.2.5>
  400ce6:	68 10 00 00 00       	pushq  $0x10
  400ceb:	e9 e0 fe ff ff       	jmpq   400bd0 <.plt>

0000000000400cf0 <memcpy@plt>:
  400cf0:	ff 25 aa 33 20 00    	jmpq   *0x2033aa(%rip)        # 6040a0 <memcpy@GLIBC_2.14>
  400cf6:	68 11 00 00 00       	pushq  $0x11
  400cfb:	e9 d0 fe ff ff       	jmpq   400bd0 <.plt>

0000000000400d00 <time@plt>:
  400d00:	ff 25 a2 33 20 00    	jmpq   *0x2033a2(%rip)        # 6040a8 <time@GLIBC_2.2.5>
  400d06:	68 12 00 00 00       	pushq  $0x12
  400d0b:	e9 c0 fe ff ff       	jmpq   400bd0 <.plt>

0000000000400d10 <random@plt>:
  400d10:	ff 25 9a 33 20 00    	jmpq   *0x20339a(%rip)        # 6040b0 <random@GLIBC_2.2.5>
  400d16:	68 13 00 00 00       	pushq  $0x13
  400d1b:	e9 b0 fe ff ff       	jmpq   400bd0 <.plt>

0000000000400d20 <_IO_getc@plt>:
  400d20:	ff 25 92 33 20 00    	jmpq   *0x203392(%rip)        # 6040b8 <_IO_getc@GLIBC_2.2.5>
  400d26:	68 14 00 00 00       	pushq  $0x14
  400d2b:	e9 a0 fe ff ff       	jmpq   400bd0 <.plt>

0000000000400d30 <__isoc99_sscanf@plt>:
  400d30:	ff 25 8a 33 20 00    	jmpq   *0x20338a(%rip)        # 6040c0 <__isoc99_sscanf@GLIBC_2.7>
  400d36:	68 15 00 00 00       	pushq  $0x15
  400d3b:	e9 90 fe ff ff       	jmpq   400bd0 <.plt>

0000000000400d40 <munmap@plt>:
  400d40:	ff 25 82 33 20 00    	jmpq   *0x203382(%rip)        # 6040c8 <munmap@GLIBC_2.2.5>
  400d46:	68 16 00 00 00       	pushq  $0x16
  400d4b:	e9 80 fe ff ff       	jmpq   400bd0 <.plt>

0000000000400d50 <bcopy@plt>:
  400d50:	ff 25 7a 33 20 00    	jmpq   *0x20337a(%rip)        # 6040d0 <bcopy@GLIBC_2.2.5>
  400d56:	68 17 00 00 00       	pushq  $0x17
  400d5b:	e9 70 fe ff ff       	jmpq   400bd0 <.plt>

0000000000400d60 <fopen@plt>:
  400d60:	ff 25 72 33 20 00    	jmpq   *0x203372(%rip)        # 6040d8 <fopen@GLIBC_2.2.5>
  400d66:	68 18 00 00 00       	pushq  $0x18
  400d6b:	e9 60 fe ff ff       	jmpq   400bd0 <.plt>

0000000000400d70 <getopt@plt>:
  400d70:	ff 25 6a 33 20 00    	jmpq   *0x20336a(%rip)        # 6040e0 <getopt@GLIBC_2.2.5>
  400d76:	68 19 00 00 00       	pushq  $0x19
  400d7b:	e9 50 fe ff ff       	jmpq   400bd0 <.plt>

0000000000400d80 <strtoul@plt>:
  400d80:	ff 25 62 33 20 00    	jmpq   *0x203362(%rip)        # 6040e8 <strtoul@GLIBC_2.2.5>
  400d86:	68 1a 00 00 00       	pushq  $0x1a
  400d8b:	e9 40 fe ff ff       	jmpq   400bd0 <.plt>

0000000000400d90 <gethostname@plt>:
  400d90:	ff 25 5a 33 20 00    	jmpq   *0x20335a(%rip)        # 6040f0 <gethostname@GLIBC_2.2.5>
  400d96:	68 1b 00 00 00       	pushq  $0x1b
  400d9b:	e9 30 fe ff ff       	jmpq   400bd0 <.plt>

0000000000400da0 <sprintf@plt>:
  400da0:	ff 25 52 33 20 00    	jmpq   *0x203352(%rip)        # 6040f8 <sprintf@GLIBC_2.2.5>
  400da6:	68 1c 00 00 00       	pushq  $0x1c
  400dab:	e9 20 fe ff ff       	jmpq   400bd0 <.plt>

0000000000400db0 <exit@plt>:
  400db0:	ff 25 4a 33 20 00    	jmpq   *0x20334a(%rip)        # 604100 <exit@GLIBC_2.2.5>
  400db6:	68 1d 00 00 00       	pushq  $0x1d
  400dbb:	e9 10 fe ff ff       	jmpq   400bd0 <.plt>

0000000000400dc0 <connect@plt>:
  400dc0:	ff 25 42 33 20 00    	jmpq   *0x203342(%rip)        # 604108 <connect@GLIBC_2.2.5>
  400dc6:	68 1e 00 00 00       	pushq  $0x1e
  400dcb:	e9 00 fe ff ff       	jmpq   400bd0 <.plt>

0000000000400dd0 <socket@plt>:
  400dd0:	ff 25 3a 33 20 00    	jmpq   *0x20333a(%rip)        # 604110 <socket@GLIBC_2.2.5>
  400dd6:	68 1f 00 00 00       	pushq  $0x1f
  400ddb:	e9 f0 fd ff ff       	jmpq   400bd0 <.plt>

Disassembly of section .text:

0000000000400de0 <_start>:
  400de0:	31 ed                	xor    %ebp,%ebp
  400de2:	49 89 d1             	mov    %rdx,%r9
  400de5:	5e                   	pop    %rsi
  400de6:	48 89 e2             	mov    %rsp,%rdx
  400de9:	48 83 e4 f0          	and    $0xfffffffffffffff0,%rsp
  400ded:	50                   	push   %rax
  400dee:	54                   	push   %rsp
  400def:	49 c7 c0 b0 2c 40 00 	mov    $0x402cb0,%r8
  400df6:	48 c7 c1 40 2c 40 00 	mov    $0x402c40,%rcx
  400dfd:	48 c7 c7 8d 10 40 00 	mov    $0x40108d,%rdi
  400e04:	ff 15 e6 31 20 00    	callq  *0x2031e6(%rip)        # 603ff0 <__libc_start_main@GLIBC_2.2.5>
  400e0a:	f4                   	hlt    
  400e0b:	0f 1f 44 00 00       	nopl   0x0(%rax,%rax,1)

0000000000400e10 <deregister_tm_clones>:
  400e10:	b8 97 44 60 00       	mov    $0x604497,%eax
  400e15:	55                   	push   %rbp
  400e16:	48 2d 90 44 60 00    	sub    $0x604490,%rax
  400e1c:	48 83 f8 0e          	cmp    $0xe,%rax
  400e20:	48 89 e5             	mov    %rsp,%rbp
  400e23:	76 1b                	jbe    400e40 <deregister_tm_clones+0x30>
  400e25:	b8 00 00 00 00       	mov    $0x0,%eax
  400e2a:	48 85 c0             	test   %rax,%rax
  400e2d:	74 11                	je     400e40 <deregister_tm_clones+0x30>
  400e2f:	5d                   	pop    %rbp
  400e30:	bf 90 44 60 00       	mov    $0x604490,%edi
  400e35:	ff e0                	jmpq   *%rax
  400e37:	66 0f 1f 84 00 00 00 	nopw   0x0(%rax,%rax,1)
  400e3e:	00 00 
  400e40:	5d                   	pop    %rbp
  400e41:	c3                   	retq   
  400e42:	0f 1f 40 00          	nopl   0x0(%rax)
  400e46:	66 2e 0f 1f 84 00 00 	nopw   %cs:0x0(%rax,%rax,1)
  400e4d:	00 00 00 

0000000000400e50 <register_tm_clones>:
  400e50:	be 90 44 60 00       	mov    $0x604490,%esi
  400e55:	55                   	push   %rbp
  400e56:	48 81 ee 90 44 60 00 	sub    $0x604490,%rsi
  400e5d:	48 c1 fe 03          	sar    $0x3,%rsi
  400e61:	48 89 e5             	mov    %rsp,%rbp
  400e64:	48 89 f0             	mov    %rsi,%rax
  400e67:	48 c1 e8 3f          	shr    $0x3f,%rax
  400e6b:	48 01 c6             	add    %rax,%rsi
  400e6e:	48 d1 fe             	sar    %rsi
  400e71:	74 15                	je     400e88 <register_tm_clones+0x38>
  400e73:	b8 00 00 00 00       	mov    $0x0,%eax
  400e78:	48 85 c0             	test   %rax,%rax
  400e7b:	74 0b                	je     400e88 <register_tm_clones+0x38>
  400e7d:	5d                   	pop    %rbp
  400e7e:	bf 90 44 60 00       	mov    $0x604490,%edi
  400e83:	ff e0                	jmpq   *%rax
  400e85:	0f 1f 00             	nopl   (%rax)
  400e88:	5d                   	pop    %rbp
  400e89:	c3                   	retq   
  400e8a:	66 0f 1f 44 00 00    	nopw   0x0(%rax,%rax,1)

0000000000400e90 <__do_global_dtors_aux>:
  400e90:	80 3d 31 36 20 00 00 	cmpb   $0x0,0x203631(%rip)        # 6044c8 <completed.6972>
  400e97:	75 11                	jne    400eaa <__do_global_dtors_aux+0x1a>
  400e99:	55                   	push   %rbp
  400e9a:	48 89 e5             	mov    %rsp,%rbp
  400e9d:	e8 6e ff ff ff       	callq  400e10 <deregister_tm_clones>
  400ea2:	5d                   	pop    %rbp
  400ea3:	c6 05 1e 36 20 00 01 	movb   $0x1,0x20361e(%rip)        # 6044c8 <completed.6972>
  400eaa:	f3 c3                	repz retq 
  400eac:	0f 1f 40 00          	nopl   0x0(%rax)

0000000000400eb0 <frame_dummy>:
  400eb0:	bf 18 3e 60 00       	mov    $0x603e18,%edi
  400eb5:	48 83 3f 00          	cmpq   $0x0,(%rdi)
  400eb9:	75 05                	jne    400ec0 <frame_dummy+0x10>
  400ebb:	eb 93                	jmp    400e50 <register_tm_clones>
  400ebd:	0f 1f 00             	nopl   (%rax)
  400ec0:	b8 00 00 00 00       	mov    $0x0,%eax
  400ec5:	48 85 c0             	test   %rax,%rax
  400ec8:	74 f1                	je     400ebb <frame_dummy+0xb>
  400eca:	55                   	push   %rbp
  400ecb:	48 89 e5             	mov    %rsp,%rbp
  400ece:	ff d0                	callq  *%rax
  400ed0:	5d                   	pop    %rbp
  400ed1:	e9 7a ff ff ff       	jmpq   400e50 <register_tm_clones>

0000000000400ed6 <usage>:
  400ed6:	48 83 ec 08          	sub    $0x8,%rsp
  400eda:	48 89 fe             	mov    %rdi,%rsi
  400edd:	83 3d 24 36 20 00 00 	cmpl   $0x0,0x203624(%rip)        # 604508 <is_checker>
  400ee4:	74 4b                	je     400f31 <usage+0x5b>
  400ee6:	48 8d 3d db 1d 00 00 	lea    0x1ddb(%rip),%rdi        # 402cc8 <_IO_stdin_used+0x8>
  400eed:	b8 00 00 00 00       	mov    $0x0,%eax
  400ef2:	e8 69 fd ff ff       	callq  400c60 <printf@plt>
  400ef7:	48 8d 3d 02 1e 00 00 	lea    0x1e02(%rip),%rdi        # 402d00 <_IO_stdin_used+0x40>
  400efe:	e8 2d fd ff ff       	callq  400c30 <puts@plt>
  400f03:	48 8d 3d 2e 1f 00 00 	lea    0x1f2e(%rip),%rdi        # 402e38 <_IO_stdin_used+0x178>
  400f0a:	e8 21 fd ff ff       	callq  400c30 <puts@plt>
  400f0f:	48 8d 3d 12 1e 00 00 	lea    0x1e12(%rip),%rdi        # 402d28 <_IO_stdin_used+0x68>
  400f16:	e8 15 fd ff ff       	callq  400c30 <puts@plt>
  400f1b:	48 8d 3d 30 1f 00 00 	lea    0x1f30(%rip),%rdi        # 402e52 <_IO_stdin_used+0x192>
  400f22:	e8 09 fd ff ff       	callq  400c30 <puts@plt>
  400f27:	bf 00 00 00 00       	mov    $0x0,%edi
  400f2c:	e8 7f fe ff ff       	callq  400db0 <exit@plt>
  400f31:	48 8d 3d 36 1f 00 00 	lea    0x1f36(%rip),%rdi        # 402e6e <_IO_stdin_used+0x1ae>
  400f38:	b8 00 00 00 00       	mov    $0x0,%eax
  400f3d:	e8 1e fd ff ff       	callq  400c60 <printf@plt>
  400f42:	48 8d 3d 07 1e 00 00 	lea    0x1e07(%rip),%rdi        # 402d50 <_IO_stdin_used+0x90>
  400f49:	e8 e2 fc ff ff       	callq  400c30 <puts@plt>
  400f4e:	48 8d 3d 23 1e 00 00 	lea    0x1e23(%rip),%rdi        # 402d78 <_IO_stdin_used+0xb8>
  400f55:	e8 d6 fc ff ff       	callq  400c30 <puts@plt>
  400f5a:	48 8d 3d 2b 1f 00 00 	lea    0x1f2b(%rip),%rdi        # 402e8c <_IO_stdin_used+0x1cc>
  400f61:	e8 ca fc ff ff       	callq  400c30 <puts@plt>
  400f66:	eb bf                	jmp    400f27 <usage+0x51>

0000000000400f68 <initialize_target>:
  400f68:	55                   	push   %rbp
  400f69:	53                   	push   %rbx
  400f6a:	48 81 ec 08 21 00 00 	sub    $0x2108,%rsp
  400f71:	89 f5                	mov    %esi,%ebp
  400f73:	89 3d 7f 35 20 00    	mov    %edi,0x20357f(%rip)        # 6044f8 <check_level>
  400f79:	8b 3d b1 31 20 00    	mov    0x2031b1(%rip),%edi        # 604130 <target_id>
  400f7f:	e8 9b 1c 00 00       	callq  402c1f <gencookie>
  400f84:	89 05 7a 35 20 00    	mov    %eax,0x20357a(%rip)        # 604504 <cookie>
  400f8a:	89 c7                	mov    %eax,%edi
  400f8c:	e8 8e 1c 00 00       	callq  402c1f <gencookie>
  400f91:	89 05 69 35 20 00    	mov    %eax,0x203569(%rip)        # 604500 <authkey>
  400f97:	8b 05 93 31 20 00    	mov    0x203193(%rip),%eax        # 604130 <target_id>
  400f9d:	8d 78 01             	lea    0x1(%rax),%edi
  400fa0:	e8 5b fc ff ff       	callq  400c00 <srandom@plt>
  400fa5:	e8 66 fd ff ff       	callq  400d10 <random@plt>
  400faa:	89 c7                	mov    %eax,%edi
  400fac:	e8 c3 02 00 00       	callq  401274 <scramble>
  400fb1:	89 c3                	mov    %eax,%ebx
  400fb3:	85 ed                	test   %ebp,%ebp
  400fb5:	75 3d                	jne    400ff4 <initialize_target+0x8c>
  400fb7:	b8 00 00 00 00       	mov    $0x0,%eax
  400fbc:	01 d8                	add    %ebx,%eax
  400fbe:	0f b7 c0             	movzwl %ax,%eax
  400fc1:	8d 04 c5 00 01 00 00 	lea    0x100(,%rax,8),%eax
  400fc8:	89 c0                	mov    %eax,%eax
  400fca:	48 89 05 af 34 20 00 	mov    %rax,0x2034af(%rip)        # 604480 <buf_offset>
  400fd1:	c6 05 50 41 20 00 63 	movb   $0x63,0x204150(%rip)        # 605128 <target_prefix>
  400fd8:	83 3d a9 34 20 00 00 	cmpl   $0x0,0x2034a9(%rip)        # 604488 <notify>
  400fdf:	74 09                	je     400fea <initialize_target+0x82>
  400fe1:	83 3d 20 35 20 00 00 	cmpl   $0x0,0x203520(%rip)        # 604508 <is_checker>
  400fe8:	74 22                	je     40100c <initialize_target+0xa4>
  400fea:	48 81 c4 08 21 00 00 	add    $0x2108,%rsp
  400ff1:	5b                   	pop    %rbx
  400ff2:	5d                   	pop    %rbp
  400ff3:	c3                   	retq   
  400ff4:	bf 00 00 00 00       	mov    $0x0,%edi
  400ff9:	e8 02 fd ff ff       	callq  400d00 <time@plt>
  400ffe:	89 c7                	mov    %eax,%edi
  401000:	e8 fb fb ff ff       	callq  400c00 <srandom@plt>
  401005:	e8 06 fd ff ff       	callq  400d10 <random@plt>
  40100a:	eb b0                	jmp    400fbc <initialize_target+0x54>
  40100c:	48 89 e7             	mov    %rsp,%rdi
  40100f:	be 00 01 00 00       	mov    $0x100,%esi
  401014:	e8 77 fd ff ff       	callq  400d90 <gethostname@plt>
  401019:	89 c3                	mov    %eax,%ebx
  40101b:	85 c0                	test   %eax,%eax
  40101d:	75 24                	jne    401043 <initialize_target+0xdb>
  40101f:	48 63 c3             	movslq %ebx,%rax
  401022:	48 8d 15 37 31 20 00 	lea    0x203137(%rip),%rdx        # 604160 <host_table>
  401029:	48 8b 3c c2          	mov    (%rdx,%rax,8),%rdi
  40102d:	48 85 ff             	test   %rdi,%rdi
  401030:	74 27                	je     401059 <initialize_target+0xf1>
  401032:	48 89 e6             	mov    %rsp,%rsi
  401035:	e8 a6 fb ff ff       	callq  400be0 <strcasecmp@plt>
  40103a:	85 c0                	test   %eax,%eax
  40103c:	74 1b                	je     401059 <initialize_target+0xf1>
  40103e:	83 c3 01             	add    $0x1,%ebx
  401041:	eb dc                	jmp    40101f <initialize_target+0xb7>
  401043:	48 8d 3d 5e 1d 00 00 	lea    0x1d5e(%rip),%rdi        # 402da8 <_IO_stdin_used+0xe8>
  40104a:	e8 e1 fb ff ff       	callq  400c30 <puts@plt>
  40104f:	bf 08 00 00 00       	mov    $0x8,%edi
  401054:	e8 57 fd ff ff       	callq  400db0 <exit@plt>
  401059:	48 8d bc 24 00 01 00 	lea    0x100(%rsp),%rdi
  401060:	00 
  401061:	e8 3e 19 00 00       	callq  4029a4 <init_driver>
  401066:	85 c0                	test   %eax,%eax
  401068:	79 80                	jns    400fea <initialize_target+0x82>
  40106a:	48 8d b4 24 00 01 00 	lea    0x100(%rsp),%rsi
  401071:	00 
  401072:	48 8d 3d 67 1d 00 00 	lea    0x1d67(%rip),%rdi        # 402de0 <_IO_stdin_used+0x120>
  401079:	b8 00 00 00 00       	mov    $0x0,%eax
  40107e:	e8 dd fb ff ff       	callq  400c60 <printf@plt>
  401083:	bf 08 00 00 00       	mov    $0x8,%edi
  401088:	e8 23 fd ff ff       	callq  400db0 <exit@plt>

000000000040108d <main>:
  40108d:	41 56                	push   %r14
  40108f:	41 55                	push   %r13
  401091:	41 54                	push   %r12
  401093:	55                   	push   %rbp
  401094:	53                   	push   %rbx
  401095:	41 89 fc             	mov    %edi,%r12d
  401098:	48 89 f3             	mov    %rsi,%rbx
  40109b:	48 c7 c6 4a 1d 40 00 	mov    $0x401d4a,%rsi
  4010a2:	bf 0b 00 00 00       	mov    $0xb,%edi
  4010a7:	e8 04 fc ff ff       	callq  400cb0 <signal@plt>
  4010ac:	48 c7 c6 f6 1c 40 00 	mov    $0x401cf6,%rsi
  4010b3:	bf 07 00 00 00       	mov    $0x7,%edi
  4010b8:	e8 f3 fb ff ff       	callq  400cb0 <signal@plt>
  4010bd:	48 c7 c6 9e 1d 40 00 	mov    $0x401d9e,%rsi
  4010c4:	bf 04 00 00 00       	mov    $0x4,%edi
  4010c9:	e8 e2 fb ff ff       	callq  400cb0 <signal@plt>
  4010ce:	83 3d 33 34 20 00 00 	cmpl   $0x0,0x203433(%rip)        # 604508 <is_checker>
  4010d5:	75 58                	jne    40112f <main+0xa2>
  4010d7:	48 8d 2d c7 1d 00 00 	lea    0x1dc7(%rip),%rbp        # 402ea5 <_IO_stdin_used+0x1e5>
  4010de:	48 8b 05 bb 33 20 00 	mov    0x2033bb(%rip),%rax        # 6044a0 <stdin@@GLIBC_2.2.5>
  4010e5:	48 89 05 04 34 20 00 	mov    %rax,0x203404(%rip)        # 6044f0 <infile>
  4010ec:	41 bd 00 00 00 00    	mov    $0x0,%r13d
  4010f2:	41 be 00 00 00 00    	mov    $0x0,%r14d
  4010f8:	48 89 ea             	mov    %rbp,%rdx
  4010fb:	48 89 de             	mov    %rbx,%rsi
  4010fe:	44 89 e7             	mov    %r12d,%edi
  401101:	e8 6a fc ff ff       	callq  400d70 <getopt@plt>
  401106:	3c ff                	cmp    $0xff,%al
  401108:	0f 84 f8 00 00 00    	je     401206 <main+0x179>
  40110e:	0f be f0             	movsbl %al,%esi
  401111:	83 e8 61             	sub    $0x61,%eax
  401114:	3c 10                	cmp    $0x10,%al
  401116:	0f 87 d1 00 00 00    	ja     4011ed <main+0x160>
  40111c:	0f b6 c0             	movzbl %al,%eax
  40111f:	48 8d 15 ca 1d 00 00 	lea    0x1dca(%rip),%rdx        # 402ef0 <_IO_stdin_used+0x230>
  401126:	48 63 04 82          	movslq (%rdx,%rax,4),%rax
  40112a:	48 01 d0             	add    %rdx,%rax
  40112d:	ff e0                	jmpq   *%rax
  40112f:	48 c7 c6 f2 1d 40 00 	mov    $0x401df2,%rsi
  401136:	bf 0e 00 00 00       	mov    $0xe,%edi
  40113b:	e8 70 fb ff ff       	callq  400cb0 <signal@plt>
  401140:	bf 05 00 00 00       	mov    $0x5,%edi
  401145:	e8 36 fb ff ff       	callq  400c80 <alarm@plt>
  40114a:	48 8d 2d 59 1d 00 00 	lea    0x1d59(%rip),%rbp        # 402eaa <_IO_stdin_used+0x1ea>
  401151:	eb 8b                	jmp    4010de <main+0x51>
  401153:	48 8b 3b             	mov    (%rbx),%rdi
  401156:	e8 7b fd ff ff       	callq  400ed6 <usage>
  40115b:	48 8d 35 d3 1f 00 00 	lea    0x1fd3(%rip),%rsi        # 403135 <_IO_stdin_used+0x475>
  401162:	48 8b 3d 3f 33 20 00 	mov    0x20333f(%rip),%rdi        # 6044a8 <optarg@@GLIBC_2.2.5>
  401169:	e8 f2 fb ff ff       	callq  400d60 <fopen@plt>
  40116e:	48 89 05 7b 33 20 00 	mov    %rax,0x20337b(%rip)        # 6044f0 <infile>
  401175:	48 85 c0             	test   %rax,%rax
  401178:	0f 85 7a ff ff ff    	jne    4010f8 <main+0x6b>
  40117e:	48 8b 15 23 33 20 00 	mov    0x203323(%rip),%rdx        # 6044a8 <optarg@@GLIBC_2.2.5>
  401185:	48 8d 35 26 1d 00 00 	lea    0x1d26(%rip),%rsi        # 402eb2 <_IO_stdin_used+0x1f2>
  40118c:	48 8b 3d 2d 33 20 00 	mov    0x20332d(%rip),%rdi        # 6044c0 <stderr@@GLIBC_2.2.5>
  401193:	e8 38 fb ff ff       	callq  400cd0 <fprintf@plt>
  401198:	b8 01 00 00 00       	mov    $0x1,%eax
  40119d:	e9 c9 00 00 00       	jmpq   40126b <main+0x1de>
  4011a2:	ba 10 00 00 00       	mov    $0x10,%edx
  4011a7:	be 00 00 00 00       	mov    $0x0,%esi
  4011ac:	48 8b 3d f5 32 20 00 	mov    0x2032f5(%rip),%rdi        # 6044a8 <optarg@@GLIBC_2.2.5>
  4011b3:	e8 c8 fb ff ff       	callq  400d80 <strtoul@plt>
  4011b8:	41 89 c6             	mov    %eax,%r14d
  4011bb:	e9 38 ff ff ff       	jmpq   4010f8 <main+0x6b>
  4011c0:	ba 0a 00 00 00       	mov    $0xa,%edx
  4011c5:	be 00 00 00 00       	mov    $0x0,%esi
  4011ca:	48 8b 3d d7 32 20 00 	mov    0x2032d7(%rip),%rdi        # 6044a8 <optarg@@GLIBC_2.2.5>
  4011d1:	e8 0a fb ff ff       	callq  400ce0 <strtol@plt>
  4011d6:	41 89 c5             	mov    %eax,%r13d
  4011d9:	e9 1a ff ff ff       	jmpq   4010f8 <main+0x6b>
  4011de:	c7 05 a0 32 20 00 00 	movl   $0x0,0x2032a0(%rip)        # 604488 <notify>
  4011e5:	00 00 00 
  4011e8:	e9 0b ff ff ff       	jmpq   4010f8 <main+0x6b>
  4011ed:	48 8d 3d db 1c 00 00 	lea    0x1cdb(%rip),%rdi        # 402ecf <_IO_stdin_used+0x20f>
  4011f4:	b8 00 00 00 00       	mov    $0x0,%eax
  4011f9:	e8 62 fa ff ff       	callq  400c60 <printf@plt>
  4011fe:	48 8b 3b             	mov    (%rbx),%rdi
  401201:	e8 d0 fc ff ff       	callq  400ed6 <usage>
  401206:	be 00 00 00 00       	mov    $0x0,%esi
  40120b:	44 89 ef             	mov    %r13d,%edi
  40120e:	e8 55 fd ff ff       	callq  400f68 <initialize_target>
  401213:	83 3d ee 32 20 00 00 	cmpl   $0x0,0x2032ee(%rip)        # 604508 <is_checker>
  40121a:	74 27                	je     401243 <main+0x1b6>
  40121c:	44 3b 35 dd 32 20 00 	cmp    0x2032dd(%rip),%r14d        # 604500 <authkey>
  401223:	74 1e                	je     401243 <main+0x1b6>
  401225:	44 89 f6             	mov    %r14d,%esi
  401228:	48 8d 3d d9 1b 00 00 	lea    0x1bd9(%rip),%rdi        # 402e08 <_IO_stdin_used+0x148>
  40122f:	b8 00 00 00 00       	mov    $0x0,%eax
  401234:	e8 27 fa ff ff       	callq  400c60 <printf@plt>
  401239:	b8 00 00 00 00       	mov    $0x0,%eax
  40123e:	e8 83 07 00 00       	callq  4019c6 <check_fail>
  401243:	8b 35 bb 32 20 00    	mov    0x2032bb(%rip),%esi        # 604504 <cookie>
  401249:	48 8d 3d 92 1c 00 00 	lea    0x1c92(%rip),%rdi        # 402ee2 <_IO_stdin_used+0x222>
  401250:	b8 00 00 00 00       	mov    $0x0,%eax
  401255:	e8 06 fa ff ff       	callq  400c60 <printf@plt>
  40125a:	48 8b 3d 1f 32 20 00 	mov    0x20321f(%rip),%rdi        # 604480 <buf_offset>
  401261:	e8 67 0c 00 00       	callq  401ecd <stable_launch>
  401266:	b8 00 00 00 00       	mov    $0x0,%eax
  40126b:	5b                   	pop    %rbx
  40126c:	5d                   	pop    %rbp
  40126d:	41 5c                	pop    %r12
  40126f:	41 5d                	pop    %r13
  401271:	41 5e                	pop    %r14
  401273:	c3                   	retq   

0000000000401274 <scramble>:
  401274:	b8 00 00 00 00       	mov    $0x0,%eax
  401279:	eb 11                	jmp    40128c <scramble+0x18>
  40127b:	69 d0 7a f2 00 00    	imul   $0xf27a,%eax,%edx
  401281:	01 fa                	add    %edi,%edx
  401283:	89 c1                	mov    %eax,%ecx
  401285:	89 54 8c d0          	mov    %edx,-0x30(%rsp,%rcx,4)
  401289:	83 c0 01             	add    $0x1,%eax
  40128c:	83 f8 09             	cmp    $0x9,%eax
  40128f:	76 ea                	jbe    40127b <scramble+0x7>
  401291:	8b 44 24 d8          	mov    -0x28(%rsp),%eax
  401295:	69 c0 c5 d2 00 00    	imul   $0xd2c5,%eax,%eax
  40129b:	89 44 24 d8          	mov    %eax,-0x28(%rsp)
  40129f:	8b 44 24 d0          	mov    -0x30(%rsp),%eax
  4012a3:	69 c0 ad 5a 00 00    	imul   $0x5aad,%eax,%eax
  4012a9:	89 44 24 d0          	mov    %eax,-0x30(%rsp)
  4012ad:	8b 44 24 d0          	mov    -0x30(%rsp),%eax
  4012b1:	69 c0 8c e8 00 00    	imul   $0xe88c,%eax,%eax
  4012b7:	89 44 24 d0          	mov    %eax,-0x30(%rsp)
  4012bb:	8b 44 24 d4          	mov    -0x2c(%rsp),%eax
  4012bf:	69 c0 5d b1 00 00    	imul   $0xb15d,%eax,%eax
  4012c5:	89 44 24 d4          	mov    %eax,-0x2c(%rsp)
  4012c9:	8b 44 24 d4          	mov    -0x2c(%rsp),%eax
  4012cd:	69 c0 dc 3a 00 00    	imul   $0x3adc,%eax,%eax
  4012d3:	89 44 24 d4          	mov    %eax,-0x2c(%rsp)
  4012d7:	8b 44 24 ec          	mov    -0x14(%rsp),%eax
  4012db:	69 c0 a9 59 00 00    	imul   $0x59a9,%eax,%eax
  4012e1:	89 44 24 ec          	mov    %eax,-0x14(%rsp)
  4012e5:	8b 44 24 e4          	mov    -0x1c(%rsp),%eax
  4012e9:	69 c0 50 33 00 00    	imul   $0x3350,%eax,%eax
  4012ef:	89 44 24 e4          	mov    %eax,-0x1c(%rsp)
  4012f3:	8b 44 24 dc          	mov    -0x24(%rsp),%eax
  4012f7:	69 c0 a8 24 00 00    	imul   $0x24a8,%eax,%eax
  4012fd:	89 44 24 dc          	mov    %eax,-0x24(%rsp)
  401301:	8b 44 24 e4          	mov    -0x1c(%rsp),%eax
  401305:	69 c0 c3 33 00 00    	imul   $0x33c3,%eax,%eax
  40130b:	89 44 24 e4          	mov    %eax,-0x1c(%rsp)
  40130f:	8b 44 24 dc          	mov    -0x24(%rsp),%eax
  401313:	69 c0 04 1a 00 00    	imul   $0x1a04,%eax,%eax
  401319:	89 44 24 dc          	mov    %eax,-0x24(%rsp)
  40131d:	8b 44 24 d8          	mov    -0x28(%rsp),%eax
  401321:	69 c0 dd cd 00 00    	imul   $0xcddd,%eax,%eax
  401327:	89 44 24 d8          	mov    %eax,-0x28(%rsp)
  40132b:	8b 44 24 f0          	mov    -0x10(%rsp),%eax
  40132f:	69 c0 e0 a7 00 00    	imul   $0xa7e0,%eax,%eax
  401335:	89 44 24 f0          	mov    %eax,-0x10(%rsp)
  401339:	8b 44 24 f0          	mov    -0x10(%rsp),%eax
  40133d:	69 c0 fa 89 00 00    	imul   $0x89fa,%eax,%eax
  401343:	89 44 24 f0          	mov    %eax,-0x10(%rsp)
  401347:	8b 44 24 f4          	mov    -0xc(%rsp),%eax
  40134b:	69 c0 10 b6 00 00    	imul   $0xb610,%eax,%eax
  401351:	89 44 24 f4          	mov    %eax,-0xc(%rsp)
  401355:	8b 44 24 f0          	mov    -0x10(%rsp),%eax
  401359:	69 c0 ba 4d 00 00    	imul   $0x4dba,%eax,%eax
  40135f:	89 44 24 f0          	mov    %eax,-0x10(%rsp)
  401363:	8b 44 24 e4          	mov    -0x1c(%rsp),%eax
  401367:	69 c0 01 d6 00 00    	imul   $0xd601,%eax,%eax
  40136d:	89 44 24 e4          	mov    %eax,-0x1c(%rsp)
  401371:	8b 44 24 f0          	mov    -0x10(%rsp),%eax
  401375:	69 c0 95 f8 00 00    	imul   $0xf895,%eax,%eax
  40137b:	89 44 24 f0          	mov    %eax,-0x10(%rsp)
  40137f:	8b 44 24 d4          	mov    -0x2c(%rsp),%eax
  401383:	69 c0 99 1b 00 00    	imul   $0x1b99,%eax,%eax
  401389:	89 44 24 d4          	mov    %eax,-0x2c(%rsp)
  40138d:	8b 44 24 f4          	mov    -0xc(%rsp),%eax
  401391:	69 c0 0a 91 00 00    	imul   $0x910a,%eax,%eax
  401397:	89 44 24 f4          	mov    %eax,-0xc(%rsp)
  40139b:	8b 44 24 d4          	mov    -0x2c(%rsp),%eax
  40139f:	69 c0 14 c5 00 00    	imul   $0xc514,%eax,%eax
  4013a5:	89 44 24 d4          	mov    %eax,-0x2c(%rsp)
  4013a9:	8b 44 24 ec          	mov    -0x14(%rsp),%eax
  4013ad:	69 c0 7a 84 00 00    	imul   $0x847a,%eax,%eax
  4013b3:	89 44 24 ec          	mov    %eax,-0x14(%rsp)
  4013b7:	8b 44 24 e0          	mov    -0x20(%rsp),%eax
  4013bb:	69 c0 0e 29 00 00    	imul   $0x290e,%eax,%eax
  4013c1:	89 44 24 e0          	mov    %eax,-0x20(%rsp)
  4013c5:	8b 44 24 e0          	mov    -0x20(%rsp),%eax
  4013c9:	69 c0 fa 8e 00 00    	imul   $0x8efa,%eax,%eax
  4013cf:	89 44 24 e0          	mov    %eax,-0x20(%rsp)
  4013d3:	8b 44 24 d4          	mov    -0x2c(%rsp),%eax
  4013d7:	69 c0 e7 9e 00 00    	imul   $0x9ee7,%eax,%eax
  4013dd:	89 44 24 d4          	mov    %eax,-0x2c(%rsp)
  4013e1:	8b 44 24 dc          	mov    -0x24(%rsp),%eax
  4013e5:	69 c0 b3 9c 00 00    	imul   $0x9cb3,%eax,%eax
  4013eb:	89 44 24 dc          	mov    %eax,-0x24(%rsp)
  4013ef:	8b 44 24 d0          	mov    -0x30(%rsp),%eax
  4013f3:	69 c0 72 04 00 00    	imul   $0x472,%eax,%eax
  4013f9:	89 44 24 d0          	mov    %eax,-0x30(%rsp)
  4013fd:	8b 44 24 e8          	mov    -0x18(%rsp),%eax
  401401:	69 c0 5d ad 00 00    	imul   $0xad5d,%eax,%eax
  401407:	89 44 24 e8          	mov    %eax,-0x18(%rsp)
  40140b:	8b 44 24 f0          	mov    -0x10(%rsp),%eax
  40140f:	69 c0 89 ab 00 00    	imul   $0xab89,%eax,%eax
  401415:	89 44 24 f0          	mov    %eax,-0x10(%rsp)
  401419:	8b 44 24 f4          	mov    -0xc(%rsp),%eax
  40141d:	69 c0 76 1c 00 00    	imul   $0x1c76,%eax,%eax
  401423:	89 44 24 f4          	mov    %eax,-0xc(%rsp)
  401427:	8b 44 24 d8          	mov    -0x28(%rsp),%eax
  40142b:	69 c0 df 1a 00 00    	imul   $0x1adf,%eax,%eax
  401431:	89 44 24 d8          	mov    %eax,-0x28(%rsp)
  401435:	8b 44 24 d8          	mov    -0x28(%rsp),%eax
  401439:	69 c0 5b d3 00 00    	imul   $0xd35b,%eax,%eax
  40143f:	89 44 24 d8          	mov    %eax,-0x28(%rsp)
  401443:	8b 44 24 d0          	mov    -0x30(%rsp),%eax
  401447:	69 c0 af 8a 00 00    	imul   $0x8aaf,%eax,%eax
  40144d:	89 44 24 d0          	mov    %eax,-0x30(%rsp)
  401451:	8b 44 24 e8          	mov    -0x18(%rsp),%eax
  401455:	69 c0 8e 21 00 00    	imul   $0x218e,%eax,%eax
  40145b:	89 44 24 e8          	mov    %eax,-0x18(%rsp)
  40145f:	8b 44 24 d8          	mov    -0x28(%rsp),%eax
  401463:	69 c0 11 ad 00 00    	imul   $0xad11,%eax,%eax
  401469:	89 44 24 d8          	mov    %eax,-0x28(%rsp)
  40146d:	8b 44 24 e4          	mov    -0x1c(%rsp),%eax
  401471:	69 c0 3f 73 00 00    	imul   $0x733f,%eax,%eax
  401477:	89 44 24 e4          	mov    %eax,-0x1c(%rsp)
  40147b:	8b 44 24 ec          	mov    -0x14(%rsp),%eax
  40147f:	69 c0 7f 7e 00 00    	imul   $0x7e7f,%eax,%eax
  401485:	89 44 24 ec          	mov    %eax,-0x14(%rsp)
  401489:	8b 44 24 e4          	mov    -0x1c(%rsp),%eax
  40148d:	69 c0 e2 90 00 00    	imul   $0x90e2,%eax,%eax
  401493:	89 44 24 e4          	mov    %eax,-0x1c(%rsp)
  401497:	8b 44 24 e8          	mov    -0x18(%rsp),%eax
  40149b:	69 c0 83 af 00 00    	imul   $0xaf83,%eax,%eax
  4014a1:	89 44 24 e8          	mov    %eax,-0x18(%rsp)
  4014a5:	8b 44 24 d8          	mov    -0x28(%rsp),%eax
  4014a9:	69 c0 43 f5 00 00    	imul   $0xf543,%eax,%eax
  4014af:	89 44 24 d8          	mov    %eax,-0x28(%rsp)
  4014b3:	8b 44 24 dc          	mov    -0x24(%rsp),%eax
  4014b7:	69 c0 99 e2 00 00    	imul   $0xe299,%eax,%eax
  4014bd:	89 44 24 dc          	mov    %eax,-0x24(%rsp)
  4014c1:	8b 44 24 dc          	mov    -0x24(%rsp),%eax
  4014c5:	69 c0 55 07 00 00    	imul   $0x755,%eax,%eax
  4014cb:	89 44 24 dc          	mov    %eax,-0x24(%rsp)
  4014cf:	8b 44 24 dc          	mov    -0x24(%rsp),%eax
  4014d3:	69 c0 87 fc 00 00    	imul   $0xfc87,%eax,%eax
  4014d9:	89 44 24 dc          	mov    %eax,-0x24(%rsp)
  4014dd:	8b 44 24 e8          	mov    -0x18(%rsp),%eax
  4014e1:	69 c0 5d 93 00 00    	imul   $0x935d,%eax,%eax
  4014e7:	89 44 24 e8          	mov    %eax,-0x18(%rsp)
  4014eb:	8b 44 24 ec          	mov    -0x14(%rsp),%eax
  4014ef:	69 c0 0b ec 00 00    	imul   $0xec0b,%eax,%eax
  4014f5:	89 44 24 ec          	mov    %eax,-0x14(%rsp)
  4014f9:	8b 44 24 d0          	mov    -0x30(%rsp),%eax
  4014fd:	69 c0 a9 09 00 00    	imul   $0x9a9,%eax,%eax
  401503:	89 44 24 d0          	mov    %eax,-0x30(%rsp)
  401507:	8b 44 24 ec          	mov    -0x14(%rsp),%eax
  40150b:	69 c0 03 1a 00 00    	imul   $0x1a03,%eax,%eax
  401511:	89 44 24 ec          	mov    %eax,-0x14(%rsp)
  401515:	8b 44 24 f0          	mov    -0x10(%rsp),%eax
  401519:	69 c0 ca f7 00 00    	imul   $0xf7ca,%eax,%eax
  40151f:	89 44 24 f0          	mov    %eax,-0x10(%rsp)
  401523:	8b 44 24 e8          	mov    -0x18(%rsp),%eax
  401527:	69 c0 f5 a8 00 00    	imul   $0xa8f5,%eax,%eax
  40152d:	89 44 24 e8          	mov    %eax,-0x18(%rsp)
  401531:	8b 44 24 dc          	mov    -0x24(%rsp),%eax
  401535:	69 c0 fb 4a 00 00    	imul   $0x4afb,%eax,%eax
  40153b:	89 44 24 dc          	mov    %eax,-0x24(%rsp)
  40153f:	8b 44 24 d0          	mov    -0x30(%rsp),%eax
  401543:	69 c0 f0 cb 00 00    	imul   $0xcbf0,%eax,%eax
  401549:	89 44 24 d0          	mov    %eax,-0x30(%rsp)
  40154d:	8b 44 24 e8          	mov    -0x18(%rsp),%eax
  401551:	69 c0 2c c8 00 00    	imul   $0xc82c,%eax,%eax
  401557:	89 44 24 e8          	mov    %eax,-0x18(%rsp)
  40155b:	8b 44 24 dc          	mov    -0x24(%rsp),%eax
  40155f:	69 c0 f4 b5 00 00    	imul   $0xb5f4,%eax,%eax
  401565:	89 44 24 dc          	mov    %eax,-0x24(%rsp)
  401569:	8b 44 24 dc          	mov    -0x24(%rsp),%eax
  40156d:	69 c0 fd f1 00 00    	imul   $0xf1fd,%eax,%eax
  401573:	89 44 24 dc          	mov    %eax,-0x24(%rsp)
  401577:	8b 44 24 dc          	mov    -0x24(%rsp),%eax
  40157b:	69 c0 eb 78 00 00    	imul   $0x78eb,%eax,%eax
  401581:	89 44 24 dc          	mov    %eax,-0x24(%rsp)
  401585:	8b 44 24 ec          	mov    -0x14(%rsp),%eax
  401589:	69 c0 e2 b3 00 00    	imul   $0xb3e2,%eax,%eax
  40158f:	89 44 24 ec          	mov    %eax,-0x14(%rsp)
  401593:	8b 44 24 dc          	mov    -0x24(%rsp),%eax
  401597:	69 c0 38 79 00 00    	imul   $0x7938,%eax,%eax
  40159d:	89 44 24 dc          	mov    %eax,-0x24(%rsp)
  4015a1:	8b 44 24 d4          	mov    -0x2c(%rsp),%eax
  4015a5:	69 c0 90 42 00 00    	imul   $0x4290,%eax,%eax
  4015ab:	89 44 24 d4          	mov    %eax,-0x2c(%rsp)
  4015af:	8b 44 24 d8          	mov    -0x28(%rsp),%eax
  4015b3:	69 c0 ea 6f 00 00    	imul   $0x6fea,%eax,%eax
  4015b9:	89 44 24 d8          	mov    %eax,-0x28(%rsp)
  4015bd:	8b 44 24 d4          	mov    -0x2c(%rsp),%eax
  4015c1:	69 c0 d0 1d 00 00    	imul   $0x1dd0,%eax,%eax
  4015c7:	89 44 24 d4          	mov    %eax,-0x2c(%rsp)
  4015cb:	8b 44 24 f4          	mov    -0xc(%rsp),%eax
  4015cf:	69 c0 c1 85 00 00    	imul   $0x85c1,%eax,%eax
  4015d5:	89 44 24 f4          	mov    %eax,-0xc(%rsp)
  4015d9:	8b 44 24 d4          	mov    -0x2c(%rsp),%eax
  4015dd:	69 c0 df 62 00 00    	imul   $0x62df,%eax,%eax
  4015e3:	89 44 24 d4          	mov    %eax,-0x2c(%rsp)
  4015e7:	8b 44 24 ec          	mov    -0x14(%rsp),%eax
  4015eb:	69 c0 7e 04 00 00    	imul   $0x47e,%eax,%eax
  4015f1:	89 44 24 ec          	mov    %eax,-0x14(%rsp)
  4015f5:	8b 44 24 f0          	mov    -0x10(%rsp),%eax
  4015f9:	69 c0 77 44 00 00    	imul   $0x4477,%eax,%eax
  4015ff:	89 44 24 f0          	mov    %eax,-0x10(%rsp)
  401603:	8b 44 24 f0          	mov    -0x10(%rsp),%eax
  401607:	69 c0 01 74 00 00    	imul   $0x7401,%eax,%eax
  40160d:	89 44 24 f0          	mov    %eax,-0x10(%rsp)
  401611:	8b 44 24 f0          	mov    -0x10(%rsp),%eax
  401615:	69 c0 7b 03 00 00    	imul   $0x37b,%eax,%eax
  40161b:	89 44 24 f0          	mov    %eax,-0x10(%rsp)
  40161f:	8b 44 24 d4          	mov    -0x2c(%rsp),%eax
  401623:	69 c0 ad 4d 00 00    	imul   $0x4dad,%eax,%eax
  401629:	89 44 24 d4          	mov    %eax,-0x2c(%rsp)
  40162d:	8b 44 24 d4          	mov    -0x2c(%rsp),%eax
  401631:	69 c0 62 8a 00 00    	imul   $0x8a62,%eax,%eax
  401637:	89 44 24 d4          	mov    %eax,-0x2c(%rsp)
  40163b:	8b 44 24 f4          	mov    -0xc(%rsp),%eax
  40163f:	69 c0 b6 24 00 00    	imul   $0x24b6,%eax,%eax
  401645:	89 44 24 f4          	mov    %eax,-0xc(%rsp)
  401649:	8b 44 24 e8          	mov    -0x18(%rsp),%eax
  40164d:	69 c0 18 69 00 00    	imul   $0x6918,%eax,%eax
  401653:	89 44 24 e8          	mov    %eax,-0x18(%rsp)
  401657:	8b 44 24 d8          	mov    -0x28(%rsp),%eax
  40165b:	69 c0 a0 63 00 00    	imul   $0x63a0,%eax,%eax
  401661:	89 44 24 d8          	mov    %eax,-0x28(%rsp)
  401665:	8b 44 24 d0          	mov    -0x30(%rsp),%eax
  401669:	69 c0 27 f9 00 00    	imul   $0xf927,%eax,%eax
  40166f:	89 44 24 d0          	mov    %eax,-0x30(%rsp)
  401673:	8b 44 24 e4          	mov    -0x1c(%rsp),%eax
  401677:	69 c0 32 d8 00 00    	imul   $0xd832,%eax,%eax
  40167d:	89 44 24 e4          	mov    %eax,-0x1c(%rsp)
  401681:	8b 44 24 e8          	mov    -0x18(%rsp),%eax
  401685:	69 c0 98 52 00 00    	imul   $0x5298,%eax,%eax
  40168b:	89 44 24 e8          	mov    %eax,-0x18(%rsp)
  40168f:	8b 44 24 e8          	mov    -0x18(%rsp),%eax
  401693:	69 c0 a5 11 00 00    	imul   $0x11a5,%eax,%eax
  401699:	89 44 24 e8          	mov    %eax,-0x18(%rsp)
  40169d:	8b 44 24 d4          	mov    -0x2c(%rsp),%eax
  4016a1:	69 c0 12 a4 00 00    	imul   $0xa412,%eax,%eax
  4016a7:	89 44 24 d4          	mov    %eax,-0x2c(%rsp)
  4016ab:	8b 44 24 d4          	mov    -0x2c(%rsp),%eax
  4016af:	69 c0 e1 97 00 00    	imul   $0x97e1,%eax,%eax
  4016b5:	89 44 24 d4          	mov    %eax,-0x2c(%rsp)
  4016b9:	8b 44 24 e8          	mov    -0x18(%rsp),%eax
  4016bd:	69 c0 2c 37 00 00    	imul   $0x372c,%eax,%eax
  4016c3:	89 44 24 e8          	mov    %eax,-0x18(%rsp)
  4016c7:	8b 44 24 e4          	mov    -0x1c(%rsp),%eax
  4016cb:	69 c0 9b 61 00 00    	imul   $0x619b,%eax,%eax
  4016d1:	89 44 24 e4          	mov    %eax,-0x1c(%rsp)
  4016d5:	8b 44 24 e0          	mov    -0x20(%rsp),%eax
  4016d9:	69 c0 d4 49 00 00    	imul   $0x49d4,%eax,%eax
  4016df:	89 44 24 e0          	mov    %eax,-0x20(%rsp)
  4016e3:	8b 44 24 f4          	mov    -0xc(%rsp),%eax
  4016e7:	69 c0 16 0b 00 00    	imul   $0xb16,%eax,%eax
  4016ed:	89 44 24 f4          	mov    %eax,-0xc(%rsp)
  4016f1:	8b 44 24 e4          	mov    -0x1c(%rsp),%eax
  4016f5:	69 c0 8e 15 00 00    	imul   $0x158e,%eax,%eax
  4016fb:	89 44 24 e4          	mov    %eax,-0x1c(%rsp)
  4016ff:	8b 44 24 d0          	mov    -0x30(%rsp),%eax
  401703:	69 c0 f6 18 00 00    	imul   $0x18f6,%eax,%eax
  401709:	89 44 24 d0          	mov    %eax,-0x30(%rsp)
  40170d:	8b 44 24 f4          	mov    -0xc(%rsp),%eax
  401711:	69 c0 64 5c 00 00    	imul   $0x5c64,%eax,%eax
  401717:	89 44 24 f4          	mov    %eax,-0xc(%rsp)
  40171b:	8b 44 24 e0          	mov    -0x20(%rsp),%eax
  40171f:	69 c0 50 1c 00 00    	imul   $0x1c50,%eax,%eax
  401725:	89 44 24 e0          	mov    %eax,-0x20(%rsp)
  401729:	8b 44 24 d8          	mov    -0x28(%rsp),%eax
  40172d:	69 c0 4f db 00 00    	imul   $0xdb4f,%eax,%eax
  401733:	89 44 24 d8          	mov    %eax,-0x28(%rsp)
  401737:	8b 44 24 f0          	mov    -0x10(%rsp),%eax
  40173b:	69 c0 77 e2 00 00    	imul   $0xe277,%eax,%eax
  401741:	89 44 24 f0          	mov    %eax,-0x10(%rsp)
  401745:	8b 44 24 e4          	mov    -0x1c(%rsp),%eax
  401749:	69 c0 c9 5c 00 00    	imul   $0x5cc9,%eax,%eax
  40174f:	89 44 24 e4          	mov    %eax,-0x1c(%rsp)
  401753:	8b 44 24 d4          	mov    -0x2c(%rsp),%eax
  401757:	69 c0 2d 10 00 00    	imul   $0x102d,%eax,%eax
  40175d:	89 44 24 d4          	mov    %eax,-0x2c(%rsp)
  401761:	8b 44 24 e4          	mov    -0x1c(%rsp),%eax
  401765:	69 c0 c5 02 00 00    	imul   $0x2c5,%eax,%eax
  40176b:	89 44 24 e4          	mov    %eax,-0x1c(%rsp)
  40176f:	8b 44 24 f4          	mov    -0xc(%rsp),%eax
  401773:	69 c0 c9 1f 00 00    	imul   $0x1fc9,%eax,%eax
  401779:	89 44 24 f4          	mov    %eax,-0xc(%rsp)
  40177d:	8b 44 24 e0          	mov    -0x20(%rsp),%eax
  401781:	69 c0 3a b9 00 00    	imul   $0xb93a,%eax,%eax
  401787:	89 44 24 e0          	mov    %eax,-0x20(%rsp)
  40178b:	ba 00 00 00 00       	mov    $0x0,%edx
  401790:	b8 00 00 00 00       	mov    $0x0,%eax
  401795:	eb 0b                	jmp    4017a2 <scramble+0x52e>
  401797:	89 d1                	mov    %edx,%ecx
  401799:	8b 4c 8c d0          	mov    -0x30(%rsp,%rcx,4),%ecx
  40179d:	01 c8                	add    %ecx,%eax
  40179f:	83 c2 01             	add    $0x1,%edx
  4017a2:	83 fa 09             	cmp    $0x9,%edx
  4017a5:	76 f0                	jbe    401797 <scramble+0x523>
  4017a7:	f3 c3                	repz retq 

00000000004017a9 <getbuf>:
  4017a9:	48 83 ec 28          	sub    $0x28,%rsp
  4017ad:	48 89 e7             	mov    %rsp,%rdi
  4017b0:	e8 44 02 00 00       	callq  4019f9 <Gets>
  4017b5:	b8 01 00 00 00       	mov    $0x1,%eax
  4017ba:	48 83 c4 28          	add    $0x28,%rsp
  4017be:	c3                   	retq   

00000000004017bf <touch1>:
  4017bf:	48 83 ec 08          	sub    $0x8,%rsp
  4017c3:	c7 05 2f 2d 20 00 01 	movl   $0x1,0x202d2f(%rip)        # 6044fc <vlevel>
  4017ca:	00 00 00 
  4017cd:	48 8d 3d ba 17 00 00 	lea    0x17ba(%rip),%rdi        # 402f8e <_IO_stdin_used+0x2ce>
  4017d4:	e8 57 f4 ff ff       	callq  400c30 <puts@plt>
  4017d9:	bf 01 00 00 00       	mov    $0x1,%edi
  4017de:	e8 2d 04 00 00       	callq  401c10 <validate>
  4017e3:	bf 00 00 00 00       	mov    $0x0,%edi
  4017e8:	e8 c3 f5 ff ff       	callq  400db0 <exit@plt>

00000000004017ed <touch2>:
  4017ed:	48 83 ec 08          	sub    $0x8,%rsp
  4017f1:	89 fe                	mov    %edi,%esi
  4017f3:	c7 05 ff 2c 20 00 02 	movl   $0x2,0x202cff(%rip)        # 6044fc <vlevel>
  4017fa:	00 00 00 
  4017fd:	39 3d 01 2d 20 00    	cmp    %edi,0x202d01(%rip)        # 604504 <cookie>
  401803:	74 25                	je     40182a <touch2+0x3d>
  401805:	48 8d 3d cc 17 00 00 	lea    0x17cc(%rip),%rdi        # 402fd8 <_IO_stdin_used+0x318>
  40180c:	b8 00 00 00 00       	mov    $0x0,%eax
  401811:	e8 4a f4 ff ff       	callq  400c60 <printf@plt>
  401816:	bf 02 00 00 00       	mov    $0x2,%edi
  40181b:	e8 ae 04 00 00       	callq  401cce <fail>
  401820:	bf 00 00 00 00       	mov    $0x0,%edi
  401825:	e8 86 f5 ff ff       	callq  400db0 <exit@plt>
  40182a:	48 8d 3d 7f 17 00 00 	lea    0x177f(%rip),%rdi        # 402fb0 <_IO_stdin_used+0x2f0>
  401831:	b8 00 00 00 00       	mov    $0x0,%eax
  401836:	e8 25 f4 ff ff       	callq  400c60 <printf@plt>
  40183b:	bf 02 00 00 00       	mov    $0x2,%edi
  401840:	e8 cb 03 00 00       	callq  401c10 <validate>
  401845:	eb d9                	jmp    401820 <touch2+0x33>

0000000000401847 <hexmatch>:
  401847:	41 54                	push   %r12
  401849:	55                   	push   %rbp
  40184a:	53                   	push   %rbx
  40184b:	48 83 ec 70          	sub    $0x70,%rsp
  40184f:	89 fd                	mov    %edi,%ebp
  401851:	48 89 f3             	mov    %rsi,%rbx
  401854:	e8 b7 f4 ff ff       	callq  400d10 <random@plt>
  401859:	48 89 c1             	mov    %rax,%rcx
  40185c:	48 ba 0b d7 a3 70 3d 	movabs $0xa3d70a3d70a3d70b,%rdx
  401863:	0a d7 a3 
  401866:	48 f7 ea             	imul   %rdx
  401869:	48 01 ca             	add    %rcx,%rdx
  40186c:	48 c1 fa 06          	sar    $0x6,%rdx
  401870:	48 89 c8             	mov    %rcx,%rax
  401873:	48 c1 f8 3f          	sar    $0x3f,%rax
  401877:	48 29 c2             	sub    %rax,%rdx
  40187a:	48 8d 04 92          	lea    (%rdx,%rdx,4),%rax
  40187e:	48 8d 14 80          	lea    (%rax,%rax,4),%rdx
  401882:	48 8d 04 95 00 00 00 	lea    0x0(,%rdx,4),%rax
  401889:	00 
  40188a:	48 29 c1             	sub    %rax,%rcx
  40188d:	4c 8d 24 0c          	lea    (%rsp,%rcx,1),%r12
  401891:	89 ea                	mov    %ebp,%edx
  401893:	48 8d 35 11 17 00 00 	lea    0x1711(%rip),%rsi        # 402fab <_IO_stdin_used+0x2eb>
  40189a:	4c 89 e7             	mov    %r12,%rdi
  40189d:	b8 00 00 00 00       	mov    $0x0,%eax
  4018a2:	e8 f9 f4 ff ff       	callq  400da0 <sprintf@plt>
  4018a7:	ba 09 00 00 00       	mov    $0x9,%edx
  4018ac:	4c 89 e6             	mov    %r12,%rsi
  4018af:	48 89 df             	mov    %rbx,%rdi
  4018b2:	e8 59 f3 ff ff       	callq  400c10 <strncmp@plt>
  4018b7:	85 c0                	test   %eax,%eax
  4018b9:	0f 94 c0             	sete   %al
  4018bc:	0f b6 c0             	movzbl %al,%eax
  4018bf:	48 83 c4 70          	add    $0x70,%rsp
  4018c3:	5b                   	pop    %rbx
  4018c4:	5d                   	pop    %rbp
  4018c5:	41 5c                	pop    %r12
  4018c7:	c3                   	retq   

00000000004018c8 <touch3>:
  4018c8:	53                   	push   %rbx
  4018c9:	48 89 fb             	mov    %rdi,%rbx
  4018cc:	c7 05 26 2c 20 00 03 	movl   $0x3,0x202c26(%rip)        # 6044fc <vlevel>
  4018d3:	00 00 00 
  4018d6:	48 89 fe             	mov    %rdi,%rsi
  4018d9:	8b 3d 25 2c 20 00    	mov    0x202c25(%rip),%edi        # 604504 <cookie>
  4018df:	e8 63 ff ff ff       	callq  401847 <hexmatch>
  4018e4:	85 c0                	test   %eax,%eax
  4018e6:	74 28                	je     401910 <touch3+0x48>
  4018e8:	48 89 de             	mov    %rbx,%rsi
  4018eb:	48 8d 3d 0e 17 00 00 	lea    0x170e(%rip),%rdi        # 403000 <_IO_stdin_used+0x340>
  4018f2:	b8 00 00 00 00       	mov    $0x0,%eax
  4018f7:	e8 64 f3 ff ff       	callq  400c60 <printf@plt>
  4018fc:	bf 03 00 00 00       	mov    $0x3,%edi
  401901:	e8 0a 03 00 00       	callq  401c10 <validate>
  401906:	bf 00 00 00 00       	mov    $0x0,%edi
  40190b:	e8 a0 f4 ff ff       	callq  400db0 <exit@plt>
  401910:	48 89 de             	mov    %rbx,%rsi
  401913:	48 8d 3d 0e 17 00 00 	lea    0x170e(%rip),%rdi        # 403028 <_IO_stdin_used+0x368>
  40191a:	b8 00 00 00 00       	mov    $0x0,%eax
  40191f:	e8 3c f3 ff ff       	callq  400c60 <printf@plt>
  401924:	bf 03 00 00 00       	mov    $0x3,%edi
  401929:	e8 a0 03 00 00       	callq  401cce <fail>
  40192e:	eb d6                	jmp    401906 <touch3+0x3e>

0000000000401930 <test>:
  401930:	48 83 ec 08          	sub    $0x8,%rsp
  401934:	b8 00 00 00 00       	mov    $0x0,%eax
  401939:	e8 6b fe ff ff       	callq  4017a9 <getbuf>
  40193e:	89 c6                	mov    %eax,%esi
  401940:	48 8d 3d 09 17 00 00 	lea    0x1709(%rip),%rdi        # 403050 <_IO_stdin_used+0x390>
  401947:	b8 00 00 00 00       	mov    $0x0,%eax
  40194c:	e8 0f f3 ff ff       	callq  400c60 <printf@plt>
  401951:	48 83 c4 08          	add    $0x8,%rsp
  401955:	c3                   	retq   

0000000000401956 <save_char>:
  401956:	8b 05 c8 37 20 00    	mov    0x2037c8(%rip),%eax        # 605124 <gets_cnt>
  40195c:	3d ff 03 00 00       	cmp    $0x3ff,%eax
  401961:	7f 4a                	jg     4019ad <save_char+0x57>
  401963:	8d 14 40             	lea    (%rax,%rax,2),%edx
  401966:	89 f9                	mov    %edi,%ecx
  401968:	c0 e9 04             	shr    $0x4,%cl
  40196b:	4c 8d 05 fe 19 00 00 	lea    0x19fe(%rip),%r8        # 403370 <trans_char>
  401972:	83 e1 0f             	and    $0xf,%ecx
  401975:	45 0f b6 0c 08       	movzbl (%r8,%rcx,1),%r9d
  40197a:	48 8d 0d 9f 2b 20 00 	lea    0x202b9f(%rip),%rcx        # 604520 <gets_buf>
  401981:	48 63 f2             	movslq %edx,%rsi
  401984:	44 88 0c 31          	mov    %r9b,(%rcx,%rsi,1)
  401988:	8d 72 01             	lea    0x1(%rdx),%esi
  40198b:	83 e7 0f             	and    $0xf,%edi
  40198e:	41 0f b6 3c 38       	movzbl (%r8,%rdi,1),%edi
  401993:	48 63 f6             	movslq %esi,%rsi
  401996:	40 88 3c 31          	mov    %dil,(%rcx,%rsi,1)
  40199a:	83 c2 02             	add    $0x2,%edx
  40199d:	48 63 d2             	movslq %edx,%rdx
  4019a0:	c6 04 11 20          	movb   $0x20,(%rcx,%rdx,1)
  4019a4:	83 c0 01             	add    $0x1,%eax
  4019a7:	89 05 77 37 20 00    	mov    %eax,0x203777(%rip)        # 605124 <gets_cnt>
  4019ad:	f3 c3                	repz retq 

00000000004019af <save_term>:
  4019af:	8b 05 6f 37 20 00    	mov    0x20376f(%rip),%eax        # 605124 <gets_cnt>
  4019b5:	8d 04 40             	lea    (%rax,%rax,2),%eax
  4019b8:	48 98                	cltq   
  4019ba:	48 8d 15 5f 2b 20 00 	lea    0x202b5f(%rip),%rdx        # 604520 <gets_buf>
  4019c1:	c6 04 02 00          	movb   $0x0,(%rdx,%rax,1)
  4019c5:	c3                   	retq   

00000000004019c6 <check_fail>:
  4019c6:	48 83 ec 08          	sub    $0x8,%rsp
  4019ca:	0f be 35 57 37 20 00 	movsbl 0x203757(%rip),%esi        # 605128 <target_prefix>
  4019d1:	48 8d 0d 48 2b 20 00 	lea    0x202b48(%rip),%rcx        # 604520 <gets_buf>
  4019d8:	8b 15 1a 2b 20 00    	mov    0x202b1a(%rip),%edx        # 6044f8 <check_level>
  4019de:	48 8d 3d 8e 16 00 00 	lea    0x168e(%rip),%rdi        # 403073 <_IO_stdin_used+0x3b3>
  4019e5:	b8 00 00 00 00       	mov    $0x0,%eax
  4019ea:	e8 71 f2 ff ff       	callq  400c60 <printf@plt>
  4019ef:	bf 01 00 00 00       	mov    $0x1,%edi
  4019f4:	e8 b7 f3 ff ff       	callq  400db0 <exit@plt>

00000000004019f9 <Gets>:
  4019f9:	41 54                	push   %r12
  4019fb:	55                   	push   %rbp
  4019fc:	53                   	push   %rbx
  4019fd:	49 89 fc             	mov    %rdi,%r12
  401a00:	c7 05 1a 37 20 00 00 	movl   $0x0,0x20371a(%rip)        # 605124 <gets_cnt>
  401a07:	00 00 00 
  401a0a:	48 89 fb             	mov    %rdi,%rbx
  401a0d:	eb 11                	jmp    401a20 <Gets+0x27>
  401a0f:	48 8d 6b 01          	lea    0x1(%rbx),%rbp
  401a13:	88 03                	mov    %al,(%rbx)
  401a15:	0f b6 f8             	movzbl %al,%edi
  401a18:	e8 39 ff ff ff       	callq  401956 <save_char>
  401a1d:	48 89 eb             	mov    %rbp,%rbx
  401a20:	48 8b 3d c9 2a 20 00 	mov    0x202ac9(%rip),%rdi        # 6044f0 <infile>
  401a27:	e8 f4 f2 ff ff       	callq  400d20 <_IO_getc@plt>
  401a2c:	83 f8 ff             	cmp    $0xffffffff,%eax
  401a2f:	74 05                	je     401a36 <Gets+0x3d>
  401a31:	83 f8 0a             	cmp    $0xa,%eax
  401a34:	75 d9                	jne    401a0f <Gets+0x16>
  401a36:	c6 03 00             	movb   $0x0,(%rbx)
  401a39:	b8 00 00 00 00       	mov    $0x0,%eax
  401a3e:	e8 6c ff ff ff       	callq  4019af <save_term>
  401a43:	4c 89 e0             	mov    %r12,%rax
  401a46:	5b                   	pop    %rbx
  401a47:	5d                   	pop    %rbp
  401a48:	41 5c                	pop    %r12
  401a4a:	c3                   	retq   

0000000000401a4b <notify_server>:
  401a4b:	83 3d b6 2a 20 00 00 	cmpl   $0x0,0x202ab6(%rip)        # 604508 <is_checker>
  401a52:	0f 85 de 00 00 00    	jne    401b36 <notify_server+0xeb>
  401a58:	55                   	push   %rbp
  401a59:	53                   	push   %rbx
  401a5a:	48 81 ec 08 40 00 00 	sub    $0x4008,%rsp
  401a61:	89 fb                	mov    %edi,%ebx
  401a63:	8b 05 bb 36 20 00    	mov    0x2036bb(%rip),%eax        # 605124 <gets_cnt>
  401a69:	83 c0 64             	add    $0x64,%eax
  401a6c:	3d 00 20 00 00       	cmp    $0x2000,%eax
  401a71:	0f 8f c1 00 00 00    	jg     401b38 <notify_server+0xed>
  401a77:	44 0f be 0d a9 36 20 	movsbl 0x2036a9(%rip),%r9d        # 605128 <target_prefix>
  401a7e:	00 
  401a7f:	83 3d 02 2a 20 00 00 	cmpl   $0x0,0x202a02(%rip)        # 604488 <notify>
  401a86:	0f 84 c7 00 00 00    	je     401b53 <notify_server+0x108>
  401a8c:	44 8b 05 6d 2a 20 00 	mov    0x202a6d(%rip),%r8d        # 604500 <authkey>
  401a93:	85 db                	test   %ebx,%ebx
  401a95:	0f 84 c3 00 00 00    	je     401b5e <notify_server+0x113>
  401a9b:	48 8d 2d e7 15 00 00 	lea    0x15e7(%rip),%rbp        # 403089 <_IO_stdin_used+0x3c9>
  401aa2:	48 8d bc 24 00 20 00 	lea    0x2000(%rsp),%rdi
  401aa9:	00 
  401aaa:	48 8d 05 6f 2a 20 00 	lea    0x202a6f(%rip),%rax        # 604520 <gets_buf>
  401ab1:	50                   	push   %rax
  401ab2:	56                   	push   %rsi
  401ab3:	48 89 e9             	mov    %rbp,%rcx
  401ab6:	8b 15 74 26 20 00    	mov    0x202674(%rip),%edx        # 604130 <target_id>
  401abc:	48 8d 35 d0 15 00 00 	lea    0x15d0(%rip),%rsi        # 403093 <_IO_stdin_used+0x3d3>
  401ac3:	b8 00 00 00 00       	mov    $0x0,%eax
  401ac8:	e8 d3 f2 ff ff       	callq  400da0 <sprintf@plt>
  401acd:	48 83 c4 10          	add    $0x10,%rsp
  401ad1:	83 3d b0 29 20 00 00 	cmpl   $0x0,0x2029b0(%rip)        # 604488 <notify>
  401ad8:	0f 84 b8 00 00 00    	je     401b96 <notify_server+0x14b>
  401ade:	85 db                	test   %ebx,%ebx
  401ae0:	0f 84 a2 00 00 00    	je     401b88 <notify_server+0x13d>
  401ae6:	48 8d 8c 24 00 20 00 	lea    0x2000(%rsp),%rcx
  401aed:	00 
  401aee:	49 89 e1             	mov    %rsp,%r9
  401af1:	41 b8 00 00 00 00    	mov    $0x0,%r8d
  401af7:	48 8b 15 4a 26 20 00 	mov    0x20264a(%rip),%rdx        # 604148 <lab>
  401afe:	48 8b 35 4b 26 20 00 	mov    0x20264b(%rip),%rsi        # 604150 <course>
  401b05:	48 8b 3d 34 26 20 00 	mov    0x202634(%rip),%rdi        # 604140 <user_id>
  401b0c:	e8 6e 10 00 00       	callq  402b7f <driver_post>
  401b11:	85 c0                	test   %eax,%eax
  401b13:	78 55                	js     401b6a <notify_server+0x11f>
  401b15:	48 8d 3d bc 16 00 00 	lea    0x16bc(%rip),%rdi        # 4031d8 <_IO_stdin_used+0x518>
  401b1c:	e8 0f f1 ff ff       	callq  400c30 <puts@plt>
  401b21:	48 8d 3d 93 15 00 00 	lea    0x1593(%rip),%rdi        # 4030bb <_IO_stdin_used+0x3fb>
  401b28:	e8 03 f1 ff ff       	callq  400c30 <puts@plt>
  401b2d:	48 81 c4 08 40 00 00 	add    $0x4008,%rsp
  401b34:	5b                   	pop    %rbx
  401b35:	5d                   	pop    %rbp
  401b36:	f3 c3                	repz retq 
  401b38:	48 8d 3d 69 16 00 00 	lea    0x1669(%rip),%rdi        # 4031a8 <_IO_stdin_used+0x4e8>
  401b3f:	b8 00 00 00 00       	mov    $0x0,%eax
  401b44:	e8 17 f1 ff ff       	callq  400c60 <printf@plt>
  401b49:	bf 01 00 00 00       	mov    $0x1,%edi
  401b4e:	e8 5d f2 ff ff       	callq  400db0 <exit@plt>
  401b53:	41 b8 ff ff ff ff    	mov    $0xffffffff,%r8d
  401b59:	e9 35 ff ff ff       	jmpq   401a93 <notify_server+0x48>
  401b5e:	48 8d 2d 29 15 00 00 	lea    0x1529(%rip),%rbp        # 40308e <_IO_stdin_used+0x3ce>
  401b65:	e9 38 ff ff ff       	jmpq   401aa2 <notify_server+0x57>
  401b6a:	48 89 e6             	mov    %rsp,%rsi
  401b6d:	48 8d 3d 3b 15 00 00 	lea    0x153b(%rip),%rdi        # 4030af <_IO_stdin_used+0x3ef>
  401b74:	b8 00 00 00 00       	mov    $0x0,%eax
  401b79:	e8 e2 f0 ff ff       	callq  400c60 <printf@plt>
  401b7e:	bf 01 00 00 00       	mov    $0x1,%edi
  401b83:	e8 28 f2 ff ff       	callq  400db0 <exit@plt>
  401b88:	48 8d 3d 36 15 00 00 	lea    0x1536(%rip),%rdi        # 4030c5 <_IO_stdin_used+0x405>
  401b8f:	e8 9c f0 ff ff       	callq  400c30 <puts@plt>
  401b94:	eb 97                	jmp    401b2d <notify_server+0xe2>
  401b96:	48 89 ee             	mov    %rbp,%rsi
  401b99:	48 8d 3d 70 16 00 00 	lea    0x1670(%rip),%rdi        # 403210 <_IO_stdin_used+0x550>
  401ba0:	b8 00 00 00 00       	mov    $0x0,%eax
  401ba5:	e8 b6 f0 ff ff       	callq  400c60 <printf@plt>
  401baa:	48 8b 35 8f 25 20 00 	mov    0x20258f(%rip),%rsi        # 604140 <user_id>
  401bb1:	48 8d 3d 14 15 00 00 	lea    0x1514(%rip),%rdi        # 4030cc <_IO_stdin_used+0x40c>
  401bb8:	b8 00 00 00 00       	mov    $0x0,%eax
  401bbd:	e8 9e f0 ff ff       	callq  400c60 <printf@plt>
  401bc2:	48 8b 35 87 25 20 00 	mov    0x202587(%rip),%rsi        # 604150 <course>
  401bc9:	48 8d 3d 09 15 00 00 	lea    0x1509(%rip),%rdi        # 4030d9 <_IO_stdin_used+0x419>
  401bd0:	b8 00 00 00 00       	mov    $0x0,%eax
  401bd5:	e8 86 f0 ff ff       	callq  400c60 <printf@plt>
  401bda:	48 8b 35 67 25 20 00 	mov    0x202567(%rip),%rsi        # 604148 <lab>
  401be1:	48 8d 3d fd 14 00 00 	lea    0x14fd(%rip),%rdi        # 4030e5 <_IO_stdin_used+0x425>
  401be8:	b8 00 00 00 00       	mov    $0x0,%eax
  401bed:	e8 6e f0 ff ff       	callq  400c60 <printf@plt>
  401bf2:	48 8d b4 24 00 20 00 	lea    0x2000(%rsp),%rsi
  401bf9:	00 
  401bfa:	48 8d 3d ed 14 00 00 	lea    0x14ed(%rip),%rdi        # 4030ee <_IO_stdin_used+0x42e>
  401c01:	b8 00 00 00 00       	mov    $0x0,%eax
  401c06:	e8 55 f0 ff ff       	callq  400c60 <printf@plt>
  401c0b:	e9 1d ff ff ff       	jmpq   401b2d <notify_server+0xe2>

0000000000401c10 <validate>:
  401c10:	53                   	push   %rbx
  401c11:	89 fb                	mov    %edi,%ebx
  401c13:	83 3d ee 28 20 00 00 	cmpl   $0x0,0x2028ee(%rip)        # 604508 <is_checker>
  401c1a:	74 68                	je     401c84 <validate+0x74>
  401c1c:	39 3d da 28 20 00    	cmp    %edi,0x2028da(%rip)        # 6044fc <vlevel>
  401c22:	75 2d                	jne    401c51 <validate+0x41>
  401c24:	8b 35 ce 28 20 00    	mov    0x2028ce(%rip),%esi        # 6044f8 <check_level>
  401c2a:	39 f7                	cmp    %esi,%edi
  401c2c:	75 39                	jne    401c67 <validate+0x57>
  401c2e:	0f be 35 f3 34 20 00 	movsbl 0x2034f3(%rip),%esi        # 605128 <target_prefix>
  401c35:	48 8d 0d e4 28 20 00 	lea    0x2028e4(%rip),%rcx        # 604520 <gets_buf>
  401c3c:	89 fa                	mov    %edi,%edx
  401c3e:	48 8d 3d d3 14 00 00 	lea    0x14d3(%rip),%rdi        # 403118 <_IO_stdin_used+0x458>
  401c45:	b8 00 00 00 00       	mov    $0x0,%eax
  401c4a:	e8 11 f0 ff ff       	callq  400c60 <printf@plt>
  401c4f:	5b                   	pop    %rbx
  401c50:	c3                   	retq   
  401c51:	48 8d 3d a2 14 00 00 	lea    0x14a2(%rip),%rdi        # 4030fa <_IO_stdin_used+0x43a>
  401c58:	e8 d3 ef ff ff       	callq  400c30 <puts@plt>
  401c5d:	b8 00 00 00 00       	mov    $0x0,%eax
  401c62:	e8 5f fd ff ff       	callq  4019c6 <check_fail>
  401c67:	89 fa                	mov    %edi,%edx
  401c69:	48 8d 3d c8 15 00 00 	lea    0x15c8(%rip),%rdi        # 403238 <_IO_stdin_used+0x578>
  401c70:	b8 00 00 00 00       	mov    $0x0,%eax
  401c75:	e8 e6 ef ff ff       	callq  400c60 <printf@plt>
  401c7a:	b8 00 00 00 00       	mov    $0x0,%eax
  401c7f:	e8 42 fd ff ff       	callq  4019c6 <check_fail>
  401c84:	3b 3d 72 28 20 00    	cmp    0x202872(%rip),%edi        # 6044fc <vlevel>
  401c8a:	74 1a                	je     401ca6 <validate+0x96>
  401c8c:	48 8d 3d 67 14 00 00 	lea    0x1467(%rip),%rdi        # 4030fa <_IO_stdin_used+0x43a>
  401c93:	e8 98 ef ff ff       	callq  400c30 <puts@plt>
  401c98:	89 de                	mov    %ebx,%esi
  401c9a:	bf 00 00 00 00       	mov    $0x0,%edi
  401c9f:	e8 a7 fd ff ff       	callq  401a4b <notify_server>
  401ca4:	eb a9                	jmp    401c4f <validate+0x3f>
  401ca6:	0f be 15 7b 34 20 00 	movsbl 0x20347b(%rip),%edx        # 605128 <target_prefix>
  401cad:	89 fe                	mov    %edi,%esi
  401caf:	48 8d 3d aa 15 00 00 	lea    0x15aa(%rip),%rdi        # 403260 <_IO_stdin_used+0x5a0>
  401cb6:	b8 00 00 00 00       	mov    $0x0,%eax
  401cbb:	e8 a0 ef ff ff       	callq  400c60 <printf@plt>
  401cc0:	89 de                	mov    %ebx,%esi
  401cc2:	bf 01 00 00 00       	mov    $0x1,%edi
  401cc7:	e8 7f fd ff ff       	callq  401a4b <notify_server>
  401ccc:	eb 81                	jmp    401c4f <validate+0x3f>

0000000000401cce <fail>:
  401cce:	48 83 ec 08          	sub    $0x8,%rsp
  401cd2:	83 3d 2f 28 20 00 00 	cmpl   $0x0,0x20282f(%rip)        # 604508 <is_checker>
  401cd9:	75 11                	jne    401cec <fail+0x1e>
  401cdb:	89 fe                	mov    %edi,%esi
  401cdd:	bf 00 00 00 00       	mov    $0x0,%edi
  401ce2:	e8 64 fd ff ff       	callq  401a4b <notify_server>
  401ce7:	48 83 c4 08          	add    $0x8,%rsp
  401ceb:	c3                   	retq   
  401cec:	b8 00 00 00 00       	mov    $0x0,%eax
  401cf1:	e8 d0 fc ff ff       	callq  4019c6 <check_fail>

0000000000401cf6 <bushandler>:
  401cf6:	48 83 ec 08          	sub    $0x8,%rsp
  401cfa:	83 3d 07 28 20 00 00 	cmpl   $0x0,0x202807(%rip)        # 604508 <is_checker>
  401d01:	74 16                	je     401d19 <bushandler+0x23>
  401d03:	48 8d 3d 23 14 00 00 	lea    0x1423(%rip),%rdi        # 40312d <_IO_stdin_used+0x46d>
  401d0a:	e8 21 ef ff ff       	callq  400c30 <puts@plt>
  401d0f:	b8 00 00 00 00       	mov    $0x0,%eax
  401d14:	e8 ad fc ff ff       	callq  4019c6 <check_fail>
  401d19:	48 8d 3d 78 15 00 00 	lea    0x1578(%rip),%rdi        # 403298 <_IO_stdin_used+0x5d8>
  401d20:	e8 0b ef ff ff       	callq  400c30 <puts@plt>
  401d25:	48 8d 3d 0b 14 00 00 	lea    0x140b(%rip),%rdi        # 403137 <_IO_stdin_used+0x477>
  401d2c:	e8 ff ee ff ff       	callq  400c30 <puts@plt>
  401d31:	be 00 00 00 00       	mov    $0x0,%esi
  401d36:	bf 00 00 00 00       	mov    $0x0,%edi
  401d3b:	e8 0b fd ff ff       	callq  401a4b <notify_server>
  401d40:	bf 01 00 00 00       	mov    $0x1,%edi
  401d45:	e8 66 f0 ff ff       	callq  400db0 <exit@plt>

0000000000401d4a <seghandler>:
  401d4a:	48 83 ec 08          	sub    $0x8,%rsp
  401d4e:	83 3d b3 27 20 00 00 	cmpl   $0x0,0x2027b3(%rip)        # 604508 <is_checker>
  401d55:	74 16                	je     401d6d <seghandler+0x23>
  401d57:	48 8d 3d ef 13 00 00 	lea    0x13ef(%rip),%rdi        # 40314d <_IO_stdin_used+0x48d>
  401d5e:	e8 cd ee ff ff       	callq  400c30 <puts@plt>
  401d63:	b8 00 00 00 00       	mov    $0x0,%eax
  401d68:	e8 59 fc ff ff       	callq  4019c6 <check_fail>
  401d6d:	48 8d 3d 44 15 00 00 	lea    0x1544(%rip),%rdi        # 4032b8 <_IO_stdin_used+0x5f8>
  401d74:	e8 b7 ee ff ff       	callq  400c30 <puts@plt>
  401d79:	48 8d 3d b7 13 00 00 	lea    0x13b7(%rip),%rdi        # 403137 <_IO_stdin_used+0x477>
  401d80:	e8 ab ee ff ff       	callq  400c30 <puts@plt>
  401d85:	be 00 00 00 00       	mov    $0x0,%esi
  401d8a:	bf 00 00 00 00       	mov    $0x0,%edi
  401d8f:	e8 b7 fc ff ff       	callq  401a4b <notify_server>
  401d94:	bf 01 00 00 00       	mov    $0x1,%edi
  401d99:	e8 12 f0 ff ff       	callq  400db0 <exit@plt>

0000000000401d9e <illegalhandler>:
  401d9e:	48 83 ec 08          	sub    $0x8,%rsp
  401da2:	83 3d 5f 27 20 00 00 	cmpl   $0x0,0x20275f(%rip)        # 604508 <is_checker>
  401da9:	74 16                	je     401dc1 <illegalhandler+0x23>
  401dab:	48 8d 3d ae 13 00 00 	lea    0x13ae(%rip),%rdi        # 403160 <_IO_stdin_used+0x4a0>
  401db2:	e8 79 ee ff ff       	callq  400c30 <puts@plt>
  401db7:	b8 00 00 00 00       	mov    $0x0,%eax
  401dbc:	e8 05 fc ff ff       	callq  4019c6 <check_fail>
  401dc1:	48 8d 3d 18 15 00 00 	lea    0x1518(%rip),%rdi        # 4032e0 <_IO_stdin_used+0x620>
  401dc8:	e8 63 ee ff ff       	callq  400c30 <puts@plt>
  401dcd:	48 8d 3d 63 13 00 00 	lea    0x1363(%rip),%rdi        # 403137 <_IO_stdin_used+0x477>
  401dd4:	e8 57 ee ff ff       	callq  400c30 <puts@plt>
  401dd9:	be 00 00 00 00       	mov    $0x0,%esi
  401dde:	bf 00 00 00 00       	mov    $0x0,%edi
  401de3:	e8 63 fc ff ff       	callq  401a4b <notify_server>
  401de8:	bf 01 00 00 00       	mov    $0x1,%edi
  401ded:	e8 be ef ff ff       	callq  400db0 <exit@plt>

0000000000401df2 <sigalrmhandler>:
  401df2:	48 83 ec 08          	sub    $0x8,%rsp
  401df6:	83 3d 0b 27 20 00 00 	cmpl   $0x0,0x20270b(%rip)        # 604508 <is_checker>
  401dfd:	74 16                	je     401e15 <sigalrmhandler+0x23>
  401dff:	48 8d 3d 6e 13 00 00 	lea    0x136e(%rip),%rdi        # 403174 <_IO_stdin_used+0x4b4>
  401e06:	e8 25 ee ff ff       	callq  400c30 <puts@plt>
  401e0b:	b8 00 00 00 00       	mov    $0x0,%eax
  401e10:	e8 b1 fb ff ff       	callq  4019c6 <check_fail>
  401e15:	be 05 00 00 00       	mov    $0x5,%esi
  401e1a:	48 8d 3d ef 14 00 00 	lea    0x14ef(%rip),%rdi        # 403310 <_IO_stdin_used+0x650>
  401e21:	b8 00 00 00 00       	mov    $0x0,%eax
  401e26:	e8 35 ee ff ff       	callq  400c60 <printf@plt>
  401e2b:	be 00 00 00 00       	mov    $0x0,%esi
  401e30:	bf 00 00 00 00       	mov    $0x0,%edi
  401e35:	e8 11 fc ff ff       	callq  401a4b <notify_server>
  401e3a:	bf 01 00 00 00       	mov    $0x1,%edi
  401e3f:	e8 6c ef ff ff       	callq  400db0 <exit@plt>

0000000000401e44 <launch>:
  401e44:	55                   	push   %rbp
  401e45:	48 89 e5             	mov    %rsp,%rbp
  401e48:	48 89 fa             	mov    %rdi,%rdx
  401e4b:	48 8d 47 1e          	lea    0x1e(%rdi),%rax
  401e4f:	48 83 e0 f0          	and    $0xfffffffffffffff0,%rax
  401e53:	48 29 c4             	sub    %rax,%rsp
  401e56:	48 8d 7c 24 0f       	lea    0xf(%rsp),%rdi
  401e5b:	48 83 e7 f0          	and    $0xfffffffffffffff0,%rdi
  401e5f:	be f4 00 00 00       	mov    $0xf4,%esi
  401e64:	e8 07 ee ff ff       	callq  400c70 <memset@plt>
  401e69:	48 8b 05 30 26 20 00 	mov    0x202630(%rip),%rax        # 6044a0 <stdin@@GLIBC_2.2.5>
  401e70:	48 39 05 79 26 20 00 	cmp    %rax,0x202679(%rip)        # 6044f0 <infile>
  401e77:	74 2b                	je     401ea4 <launch+0x60>
  401e79:	c7 05 79 26 20 00 00 	movl   $0x0,0x202679(%rip)        # 6044fc <vlevel>
  401e80:	00 00 00 
  401e83:	b8 00 00 00 00       	mov    $0x0,%eax
  401e88:	e8 a3 fa ff ff       	callq  401930 <test>
  401e8d:	83 3d 74 26 20 00 00 	cmpl   $0x0,0x202674(%rip)        # 604508 <is_checker>
  401e94:	75 21                	jne    401eb7 <launch+0x73>
  401e96:	48 8d 3d f7 12 00 00 	lea    0x12f7(%rip),%rdi        # 403194 <_IO_stdin_used+0x4d4>
  401e9d:	e8 8e ed ff ff       	callq  400c30 <puts@plt>
  401ea2:	c9                   	leaveq 
  401ea3:	c3                   	retq   
  401ea4:	48 8d 3d d1 12 00 00 	lea    0x12d1(%rip),%rdi        # 40317c <_IO_stdin_used+0x4bc>
  401eab:	b8 00 00 00 00       	mov    $0x0,%eax
  401eb0:	e8 ab ed ff ff       	callq  400c60 <printf@plt>
  401eb5:	eb c2                	jmp    401e79 <launch+0x35>
  401eb7:	48 8d 3d cb 12 00 00 	lea    0x12cb(%rip),%rdi        # 403189 <_IO_stdin_used+0x4c9>
  401ebe:	e8 6d ed ff ff       	callq  400c30 <puts@plt>
  401ec3:	b8 00 00 00 00       	mov    $0x0,%eax
  401ec8:	e8 f9 fa ff ff       	callq  4019c6 <check_fail>

0000000000401ecd <stable_launch>:
  401ecd:	53                   	push   %rbx
  401ece:	48 89 3d 13 26 20 00 	mov    %rdi,0x202613(%rip)        # 6044e8 <global_offset>
  401ed5:	41 b9 00 00 00 00    	mov    $0x0,%r9d
  401edb:	41 b8 00 00 00 00    	mov    $0x0,%r8d
  401ee1:	b9 32 01 00 00       	mov    $0x132,%ecx
  401ee6:	ba 07 00 00 00       	mov    $0x7,%edx
  401eeb:	be 00 00 10 00       	mov    $0x100000,%esi
  401ef0:	bf 00 60 58 55       	mov    $0x55586000,%edi
  401ef5:	e8 56 ed ff ff       	callq  400c50 <mmap@plt>
  401efa:	48 89 c3             	mov    %rax,%rbx
  401efd:	48 3d 00 60 58 55    	cmp    $0x55586000,%rax
  401f03:	75 43                	jne    401f48 <stable_launch+0x7b>
  401f05:	48 8d 90 f8 ff 0f 00 	lea    0xffff8(%rax),%rdx
  401f0c:	48 89 15 1d 32 20 00 	mov    %rdx,0x20321d(%rip)        # 605130 <stack_top>
  401f13:	48 89 e0             	mov    %rsp,%rax
  401f16:	48 89 d4             	mov    %rdx,%rsp
  401f19:	48 89 c2             	mov    %rax,%rdx
  401f1c:	48 89 15 bd 25 20 00 	mov    %rdx,0x2025bd(%rip)        # 6044e0 <global_save_stack>
  401f23:	48 8b 3d be 25 20 00 	mov    0x2025be(%rip),%rdi        # 6044e8 <global_offset>
  401f2a:	e8 15 ff ff ff       	callq  401e44 <launch>
  401f2f:	48 8b 05 aa 25 20 00 	mov    0x2025aa(%rip),%rax        # 6044e0 <global_save_stack>
  401f36:	48 89 c4             	mov    %rax,%rsp
  401f39:	be 00 00 10 00       	mov    $0x100000,%esi
  401f3e:	48 89 df             	mov    %rbx,%rdi
  401f41:	e8 fa ed ff ff       	callq  400d40 <munmap@plt>
  401f46:	5b                   	pop    %rbx
  401f47:	c3                   	retq   
  401f48:	be 00 00 10 00       	mov    $0x100000,%esi
  401f4d:	48 89 c7             	mov    %rax,%rdi
  401f50:	e8 eb ed ff ff       	callq  400d40 <munmap@plt>
  401f55:	ba 00 60 58 55       	mov    $0x55586000,%edx
  401f5a:	48 8d 35 e7 13 00 00 	lea    0x13e7(%rip),%rsi        # 403348 <_IO_stdin_used+0x688>
  401f61:	48 8b 3d 58 25 20 00 	mov    0x202558(%rip),%rdi        # 6044c0 <stderr@@GLIBC_2.2.5>
  401f68:	b8 00 00 00 00       	mov    $0x0,%eax
  401f6d:	e8 5e ed ff ff       	callq  400cd0 <fprintf@plt>
  401f72:	bf 01 00 00 00       	mov    $0x1,%edi
  401f77:	e8 34 ee ff ff       	callq  400db0 <exit@plt>

0000000000401f7c <rio_readinitb>:
  401f7c:	89 37                	mov    %esi,(%rdi)
  401f7e:	c7 47 04 00 00 00 00 	movl   $0x0,0x4(%rdi)
  401f85:	48 8d 47 10          	lea    0x10(%rdi),%rax
  401f89:	48 89 47 08          	mov    %rax,0x8(%rdi)
  401f8d:	c3                   	retq   

0000000000401f8e <sigalrm_handler>:
  401f8e:	48 83 ec 08          	sub    $0x8,%rsp
  401f92:	ba 00 00 00 00       	mov    $0x0,%edx
  401f97:	48 8d 35 e2 13 00 00 	lea    0x13e2(%rip),%rsi        # 403380 <trans_char+0x10>
  401f9e:	48 8b 3d 1b 25 20 00 	mov    0x20251b(%rip),%rdi        # 6044c0 <stderr@@GLIBC_2.2.5>
  401fa5:	b8 00 00 00 00       	mov    $0x0,%eax
  401faa:	e8 21 ed ff ff       	callq  400cd0 <fprintf@plt>
  401faf:	bf 01 00 00 00       	mov    $0x1,%edi
  401fb4:	e8 f7 ed ff ff       	callq  400db0 <exit@plt>

0000000000401fb9 <urlencode>:
  401fb9:	41 54                	push   %r12
  401fbb:	55                   	push   %rbp
  401fbc:	53                   	push   %rbx
  401fbd:	48 83 ec 10          	sub    $0x10,%rsp
  401fc1:	48 89 fb             	mov    %rdi,%rbx
  401fc4:	48 89 f5             	mov    %rsi,%rbp
  401fc7:	b8 00 00 00 00       	mov    $0x0,%eax
  401fcc:	48 c7 c1 ff ff ff ff 	mov    $0xffffffffffffffff,%rcx
  401fd3:	f2 ae                	repnz scas %es:(%rdi),%al
  401fd5:	48 f7 d1             	not    %rcx
  401fd8:	8d 41 ff             	lea    -0x1(%rcx),%eax
  401fdb:	eb 0e                	jmp    401feb <urlencode+0x32>
  401fdd:	88 55 00             	mov    %dl,0x0(%rbp)
  401fe0:	48 8d 6d 01          	lea    0x1(%rbp),%rbp
  401fe4:	48 83 c3 01          	add    $0x1,%rbx
  401fe8:	44 89 e0             	mov    %r12d,%eax
  401feb:	44 8d 60 ff          	lea    -0x1(%rax),%r12d
  401fef:	85 c0                	test   %eax,%eax
  401ff1:	0f 84 95 00 00 00    	je     40208c <urlencode+0xd3>
  401ff7:	0f b6 13             	movzbl (%rbx),%edx
  401ffa:	80 fa 2a             	cmp    $0x2a,%dl
  401ffd:	0f 94 c1             	sete   %cl
  402000:	80 fa 2d             	cmp    $0x2d,%dl
  402003:	0f 94 c0             	sete   %al
  402006:	08 c1                	or     %al,%cl
  402008:	75 d3                	jne    401fdd <urlencode+0x24>
  40200a:	80 fa 2e             	cmp    $0x2e,%dl
  40200d:	74 ce                	je     401fdd <urlencode+0x24>
  40200f:	80 fa 5f             	cmp    $0x5f,%dl
  402012:	74 c9                	je     401fdd <urlencode+0x24>
  402014:	8d 42 d0             	lea    -0x30(%rdx),%eax
  402017:	3c 09                	cmp    $0x9,%al
  402019:	76 c2                	jbe    401fdd <urlencode+0x24>
  40201b:	8d 42 bf             	lea    -0x41(%rdx),%eax
  40201e:	3c 19                	cmp    $0x19,%al
  402020:	76 bb                	jbe    401fdd <urlencode+0x24>
  402022:	8d 42 9f             	lea    -0x61(%rdx),%eax
  402025:	3c 19                	cmp    $0x19,%al
  402027:	76 b4                	jbe    401fdd <urlencode+0x24>
  402029:	80 fa 20             	cmp    $0x20,%dl
  40202c:	74 4c                	je     40207a <urlencode+0xc1>
  40202e:	8d 42 e0             	lea    -0x20(%rdx),%eax
  402031:	3c 5f                	cmp    $0x5f,%al
  402033:	0f 96 c1             	setbe  %cl
  402036:	80 fa 09             	cmp    $0x9,%dl
  402039:	0f 94 c0             	sete   %al
  40203c:	08 c1                	or     %al,%cl
  40203e:	74 47                	je     402087 <urlencode+0xce>
  402040:	0f b6 d2             	movzbl %dl,%edx
  402043:	48 8d 7c 24 08       	lea    0x8(%rsp),%rdi
  402048:	48 8d 35 c9 13 00 00 	lea    0x13c9(%rip),%rsi        # 403418 <trans_char+0xa8>
  40204f:	b8 00 00 00 00       	mov    $0x0,%eax
  402054:	e8 47 ed ff ff       	callq  400da0 <sprintf@plt>
  402059:	0f b6 44 24 08       	movzbl 0x8(%rsp),%eax
  40205e:	88 45 00             	mov    %al,0x0(%rbp)
  402061:	0f b6 44 24 09       	movzbl 0x9(%rsp),%eax
  402066:	88 45 01             	mov    %al,0x1(%rbp)
  402069:	0f b6 44 24 0a       	movzbl 0xa(%rsp),%eax
  40206e:	88 45 02             	mov    %al,0x2(%rbp)
  402071:	48 8d 6d 03          	lea    0x3(%rbp),%rbp
  402075:	e9 6a ff ff ff       	jmpq   401fe4 <urlencode+0x2b>
  40207a:	c6 45 00 2b          	movb   $0x2b,0x0(%rbp)
  40207e:	48 8d 6d 01          	lea    0x1(%rbp),%rbp
  402082:	e9 5d ff ff ff       	jmpq   401fe4 <urlencode+0x2b>
  402087:	b8 ff ff ff ff       	mov    $0xffffffff,%eax
  40208c:	48 83 c4 10          	add    $0x10,%rsp
  402090:	5b                   	pop    %rbx
  402091:	5d                   	pop    %rbp
  402092:	41 5c                	pop    %r12
  402094:	c3                   	retq   

0000000000402095 <rio_writen>:
  402095:	41 55                	push   %r13
  402097:	41 54                	push   %r12
  402099:	55                   	push   %rbp
  40209a:	53                   	push   %rbx
  40209b:	48 83 ec 08          	sub    $0x8,%rsp
  40209f:	41 89 fc             	mov    %edi,%r12d
  4020a2:	49 89 d5             	mov    %rdx,%r13
  4020a5:	48 89 f5             	mov    %rsi,%rbp
  4020a8:	48 89 d3             	mov    %rdx,%rbx
  4020ab:	eb 06                	jmp    4020b3 <rio_writen+0x1e>
  4020ad:	48 29 c3             	sub    %rax,%rbx
  4020b0:	48 01 c5             	add    %rax,%rbp
  4020b3:	48 85 db             	test   %rbx,%rbx
  4020b6:	74 24                	je     4020dc <rio_writen+0x47>
  4020b8:	48 89 da             	mov    %rbx,%rdx
  4020bb:	48 89 ee             	mov    %rbp,%rsi
  4020be:	44 89 e7             	mov    %r12d,%edi
  4020c1:	e8 7a eb ff ff       	callq  400c40 <write@plt>
  4020c6:	48 85 c0             	test   %rax,%rax
  4020c9:	7f e2                	jg     4020ad <rio_writen+0x18>
  4020cb:	e8 20 eb ff ff       	callq  400bf0 <__errno_location@plt>
  4020d0:	83 38 04             	cmpl   $0x4,(%rax)
  4020d3:	75 15                	jne    4020ea <rio_writen+0x55>
  4020d5:	b8 00 00 00 00       	mov    $0x0,%eax
  4020da:	eb d1                	jmp    4020ad <rio_writen+0x18>
  4020dc:	4c 89 e8             	mov    %r13,%rax
  4020df:	48 83 c4 08          	add    $0x8,%rsp
  4020e3:	5b                   	pop    %rbx
  4020e4:	5d                   	pop    %rbp
  4020e5:	41 5c                	pop    %r12
  4020e7:	41 5d                	pop    %r13
  4020e9:	c3                   	retq   
  4020ea:	48 c7 c0 ff ff ff ff 	mov    $0xffffffffffffffff,%rax
  4020f1:	eb ec                	jmp    4020df <rio_writen+0x4a>

00000000004020f3 <rio_read>:
  4020f3:	41 55                	push   %r13
  4020f5:	41 54                	push   %r12
  4020f7:	55                   	push   %rbp
  4020f8:	53                   	push   %rbx
  4020f9:	48 83 ec 08          	sub    $0x8,%rsp
  4020fd:	48 89 fb             	mov    %rdi,%rbx
  402100:	49 89 f5             	mov    %rsi,%r13
  402103:	49 89 d4             	mov    %rdx,%r12
  402106:	eb 0a                	jmp    402112 <rio_read+0x1f>
  402108:	e8 e3 ea ff ff       	callq  400bf0 <__errno_location@plt>
  40210d:	83 38 04             	cmpl   $0x4,(%rax)
  402110:	75 5c                	jne    40216e <rio_read+0x7b>
  402112:	8b 6b 04             	mov    0x4(%rbx),%ebp
  402115:	85 ed                	test   %ebp,%ebp
  402117:	7f 24                	jg     40213d <rio_read+0x4a>
  402119:	48 8d 6b 10          	lea    0x10(%rbx),%rbp
  40211d:	ba 00 20 00 00       	mov    $0x2000,%edx
  402122:	48 89 ee             	mov    %rbp,%rsi
  402125:	8b 3b                	mov    (%rbx),%edi
  402127:	e8 74 eb ff ff       	callq  400ca0 <read@plt>
  40212c:	89 43 04             	mov    %eax,0x4(%rbx)
  40212f:	85 c0                	test   %eax,%eax
  402131:	78 d5                	js     402108 <rio_read+0x15>
  402133:	85 c0                	test   %eax,%eax
  402135:	74 40                	je     402177 <rio_read+0x84>
  402137:	48 89 6b 08          	mov    %rbp,0x8(%rbx)
  40213b:	eb d5                	jmp    402112 <rio_read+0x1f>
  40213d:	89 e8                	mov    %ebp,%eax
  40213f:	49 39 c4             	cmp    %rax,%r12
  402142:	77 03                	ja     402147 <rio_read+0x54>
  402144:	44 89 e5             	mov    %r12d,%ebp
  402147:	4c 63 e5             	movslq %ebp,%r12
  40214a:	48 8b 73 08          	mov    0x8(%rbx),%rsi
  40214e:	4c 89 e2             	mov    %r12,%rdx
  402151:	4c 89 ef             	mov    %r13,%rdi
  402154:	e8 97 eb ff ff       	callq  400cf0 <memcpy@plt>
  402159:	4c 01 63 08          	add    %r12,0x8(%rbx)
  40215d:	29 6b 04             	sub    %ebp,0x4(%rbx)
  402160:	4c 89 e0             	mov    %r12,%rax
  402163:	48 83 c4 08          	add    $0x8,%rsp
  402167:	5b                   	pop    %rbx
  402168:	5d                   	pop    %rbp
  402169:	41 5c                	pop    %r12
  40216b:	41 5d                	pop    %r13
  40216d:	c3                   	retq   
  40216e:	48 c7 c0 ff ff ff ff 	mov    $0xffffffffffffffff,%rax
  402175:	eb ec                	jmp    402163 <rio_read+0x70>
  402177:	b8 00 00 00 00       	mov    $0x0,%eax
  40217c:	eb e5                	jmp    402163 <rio_read+0x70>

000000000040217e <rio_readlineb>:
  40217e:	41 55                	push   %r13
  402180:	41 54                	push   %r12
  402182:	55                   	push   %rbp
  402183:	53                   	push   %rbx
  402184:	48 83 ec 18          	sub    $0x18,%rsp
  402188:	49 89 fd             	mov    %rdi,%r13
  40218b:	49 89 d4             	mov    %rdx,%r12
  40218e:	48 89 f5             	mov    %rsi,%rbp
  402191:	bb 01 00 00 00       	mov    $0x1,%ebx
  402196:	4c 39 e3             	cmp    %r12,%rbx
  402199:	73 47                	jae    4021e2 <rio_readlineb+0x64>
  40219b:	48 8d 74 24 0f       	lea    0xf(%rsp),%rsi
  4021a0:	ba 01 00 00 00       	mov    $0x1,%edx
  4021a5:	4c 89 ef             	mov    %r13,%rdi
  4021a8:	e8 46 ff ff ff       	callq  4020f3 <rio_read>
  4021ad:	83 f8 01             	cmp    $0x1,%eax
  4021b0:	75 1c                	jne    4021ce <rio_readlineb+0x50>
  4021b2:	48 8d 45 01          	lea    0x1(%rbp),%rax
  4021b6:	0f b6 54 24 0f       	movzbl 0xf(%rsp),%edx
  4021bb:	88 55 00             	mov    %dl,0x0(%rbp)
  4021be:	80 7c 24 0f 0a       	cmpb   $0xa,0xf(%rsp)
  4021c3:	74 1a                	je     4021df <rio_readlineb+0x61>
  4021c5:	48 83 c3 01          	add    $0x1,%rbx
  4021c9:	48 89 c5             	mov    %rax,%rbp
  4021cc:	eb c8                	jmp    402196 <rio_readlineb+0x18>
  4021ce:	85 c0                	test   %eax,%eax
  4021d0:	75 22                	jne    4021f4 <rio_readlineb+0x76>
  4021d2:	48 83 fb 01          	cmp    $0x1,%rbx
  4021d6:	75 0a                	jne    4021e2 <rio_readlineb+0x64>
  4021d8:	b8 00 00 00 00       	mov    $0x0,%eax
  4021dd:	eb 0a                	jmp    4021e9 <rio_readlineb+0x6b>
  4021df:	48 89 c5             	mov    %rax,%rbp
  4021e2:	c6 45 00 00          	movb   $0x0,0x0(%rbp)
  4021e6:	48 89 d8             	mov    %rbx,%rax
  4021e9:	48 83 c4 18          	add    $0x18,%rsp
  4021ed:	5b                   	pop    %rbx
  4021ee:	5d                   	pop    %rbp
  4021ef:	41 5c                	pop    %r12
  4021f1:	41 5d                	pop    %r13
  4021f3:	c3                   	retq   
  4021f4:	48 c7 c0 ff ff ff ff 	mov    $0xffffffffffffffff,%rax
  4021fb:	eb ec                	jmp    4021e9 <rio_readlineb+0x6b>

00000000004021fd <submitr>:
  4021fd:	41 57                	push   %r15
  4021ff:	41 56                	push   %r14
  402201:	41 55                	push   %r13
  402203:	41 54                	push   %r12
  402205:	55                   	push   %rbp
  402206:	53                   	push   %rbx
  402207:	48 81 ec 58 a0 00 00 	sub    $0xa058,%rsp
  40220e:	49 89 fd             	mov    %rdi,%r13
  402211:	89 74 24 14          	mov    %esi,0x14(%rsp)
  402215:	49 89 d7             	mov    %rdx,%r15
  402218:	48 89 4c 24 08       	mov    %rcx,0x8(%rsp)
  40221d:	4c 89 44 24 18       	mov    %r8,0x18(%rsp)
  402222:	4d 89 ce             	mov    %r9,%r14
  402225:	48 8b 9c 24 90 a0 00 	mov    0xa090(%rsp),%rbx
  40222c:	00 
  40222d:	c7 84 24 2c 20 00 00 	movl   $0x0,0x202c(%rsp)
  402234:	00 00 00 00 
  402238:	ba 00 00 00 00       	mov    $0x0,%edx
  40223d:	be 01 00 00 00       	mov    $0x1,%esi
  402242:	bf 02 00 00 00       	mov    $0x2,%edi
  402247:	e8 84 eb ff ff       	callq  400dd0 <socket@plt>
  40224c:	85 c0                	test   %eax,%eax
  40224e:	0f 88 ca 01 00 00    	js     40241e <submitr+0x221>
  402254:	89 c5                	mov    %eax,%ebp
  402256:	4c 89 ef             	mov    %r13,%rdi
  402259:	e8 62 ea ff ff       	callq  400cc0 <gethostbyname@plt>
  40225e:	48 85 c0             	test   %rax,%rax
  402261:	0f 84 05 02 00 00    	je     40246c <submitr+0x26f>
  402267:	4c 8d a4 24 40 a0 00 	lea    0xa040(%rsp),%r12
  40226e:	00 
  40226f:	48 c7 84 24 40 a0 00 	movq   $0x0,0xa040(%rsp)
  402276:	00 00 00 00 00 
  40227b:	48 c7 84 24 48 a0 00 	movq   $0x0,0xa048(%rsp)
  402282:	00 00 00 00 00 
  402287:	66 c7 84 24 40 a0 00 	movw   $0x2,0xa040(%rsp)
  40228e:	00 02 00 
  402291:	48 8b 48 18          	mov    0x18(%rax),%rcx
  402295:	48 63 50 14          	movslq 0x14(%rax),%rdx
  402299:	48 8d b4 24 44 a0 00 	lea    0xa044(%rsp),%rsi
  4022a0:	00 
  4022a1:	48 8b 39             	mov    (%rcx),%rdi
  4022a4:	e8 a7 ea ff ff       	callq  400d50 <bcopy@plt>
  4022a9:	0f b7 44 24 14       	movzwl 0x14(%rsp),%eax
  4022ae:	66 c1 c8 08          	ror    $0x8,%ax
  4022b2:	66 89 84 24 42 a0 00 	mov    %ax,0xa042(%rsp)
  4022b9:	00 
  4022ba:	ba 10 00 00 00       	mov    $0x10,%edx
  4022bf:	4c 89 e6             	mov    %r12,%rsi
  4022c2:	89 ef                	mov    %ebp,%edi
  4022c4:	e8 f7 ea ff ff       	callq  400dc0 <connect@plt>
  4022c9:	85 c0                	test   %eax,%eax
  4022cb:	0f 88 02 02 00 00    	js     4024d3 <submitr+0x2d6>
  4022d1:	48 c7 c6 ff ff ff ff 	mov    $0xffffffffffffffff,%rsi
  4022d8:	b8 00 00 00 00       	mov    $0x0,%eax
  4022dd:	48 89 f1             	mov    %rsi,%rcx
  4022e0:	4c 89 f7             	mov    %r14,%rdi
  4022e3:	f2 ae                	repnz scas %es:(%rdi),%al
  4022e5:	48 f7 d1             	not    %rcx
  4022e8:	48 89 ca             	mov    %rcx,%rdx
  4022eb:	48 89 f1             	mov    %rsi,%rcx
  4022ee:	4c 89 ff             	mov    %r15,%rdi
  4022f1:	f2 ae                	repnz scas %es:(%rdi),%al
  4022f3:	48 f7 d1             	not    %rcx
  4022f6:	49 89 c8             	mov    %rcx,%r8
  4022f9:	48 89 f1             	mov    %rsi,%rcx
  4022fc:	48 8b 7c 24 08       	mov    0x8(%rsp),%rdi
  402301:	f2 ae                	repnz scas %es:(%rdi),%al
  402303:	48 f7 d1             	not    %rcx
  402306:	4d 8d 44 08 fe       	lea    -0x2(%r8,%rcx,1),%r8
  40230b:	48 89 f1             	mov    %rsi,%rcx
  40230e:	48 8b 7c 24 18       	mov    0x18(%rsp),%rdi
  402313:	f2 ae                	repnz scas %es:(%rdi),%al
  402315:	48 89 c8             	mov    %rcx,%rax
  402318:	48 f7 d0             	not    %rax
  40231b:	49 8d 4c 00 ff       	lea    -0x1(%r8,%rax,1),%rcx
  402320:	48 8d 44 52 fd       	lea    -0x3(%rdx,%rdx,2),%rax
  402325:	48 8d 84 01 80 00 00 	lea    0x80(%rcx,%rax,1),%rax
  40232c:	00 
  40232d:	48 3d 00 20 00 00    	cmp    $0x2000,%rax
  402333:	0f 87 f3 01 00 00    	ja     40252c <submitr+0x32f>
  402339:	48 8d b4 24 30 40 00 	lea    0x4030(%rsp),%rsi
  402340:	00 
  402341:	b9 00 04 00 00       	mov    $0x400,%ecx
  402346:	b8 00 00 00 00       	mov    $0x0,%eax
  40234b:	48 89 f7             	mov    %rsi,%rdi
  40234e:	f3 48 ab             	rep stos %rax,%es:(%rdi)
  402351:	4c 89 f7             	mov    %r14,%rdi
  402354:	e8 60 fc ff ff       	callq  401fb9 <urlencode>
  402359:	85 c0                	test   %eax,%eax
  40235b:	0f 88 3d 02 00 00    	js     40259e <submitr+0x3a1>
  402361:	4c 8d a4 24 30 60 00 	lea    0x6030(%rsp),%r12
  402368:	00 
  402369:	4d 89 e9             	mov    %r13,%r9
  40236c:	4c 8d 84 24 30 40 00 	lea    0x4030(%rsp),%r8
  402373:	00 
  402374:	4c 89 f9             	mov    %r15,%rcx
  402377:	48 8b 54 24 08       	mov    0x8(%rsp),%rdx
  40237c:	48 8d 35 25 10 00 00 	lea    0x1025(%rip),%rsi        # 4033a8 <trans_char+0x38>
  402383:	4c 89 e7             	mov    %r12,%rdi
  402386:	b8 00 00 00 00       	mov    $0x0,%eax
  40238b:	e8 10 ea ff ff       	callq  400da0 <sprintf@plt>
  402390:	b8 00 00 00 00       	mov    $0x0,%eax
  402395:	48 c7 c1 ff ff ff ff 	mov    $0xffffffffffffffff,%rcx
  40239c:	4c 89 e7             	mov    %r12,%rdi
  40239f:	f2 ae                	repnz scas %es:(%rdi),%al
  4023a1:	48 f7 d1             	not    %rcx
  4023a4:	48 8d 51 ff          	lea    -0x1(%rcx),%rdx
  4023a8:	4c 89 e6             	mov    %r12,%rsi
  4023ab:	89 ef                	mov    %ebp,%edi
  4023ad:	e8 e3 fc ff ff       	callq  402095 <rio_writen>
  4023b2:	48 85 c0             	test   %rax,%rax
  4023b5:	0f 88 6d 02 00 00    	js     402628 <submitr+0x42b>
  4023bb:	4c 8d a4 24 30 80 00 	lea    0x8030(%rsp),%r12
  4023c2:	00 
  4023c3:	89 ee                	mov    %ebp,%esi
  4023c5:	4c 89 e7             	mov    %r12,%rdi
  4023c8:	e8 af fb ff ff       	callq  401f7c <rio_readinitb>
  4023cd:	48 8d b4 24 30 60 00 	lea    0x6030(%rsp),%rsi
  4023d4:	00 
  4023d5:	ba 00 20 00 00       	mov    $0x2000,%edx
  4023da:	4c 89 e7             	mov    %r12,%rdi
  4023dd:	e8 9c fd ff ff       	callq  40217e <rio_readlineb>
  4023e2:	48 85 c0             	test   %rax,%rax
  4023e5:	0f 8e ab 02 00 00    	jle    402696 <submitr+0x499>
  4023eb:	48 8d 8c 24 2c 20 00 	lea    0x202c(%rsp),%rcx
  4023f2:	00 
  4023f3:	48 8d 94 24 30 20 00 	lea    0x2030(%rsp),%rdx
  4023fa:	00 
  4023fb:	48 8d bc 24 30 60 00 	lea    0x6030(%rsp),%rdi
  402402:	00 
  402403:	4c 8d 44 24 20       	lea    0x20(%rsp),%r8
  402408:	48 8d 35 10 10 00 00 	lea    0x1010(%rip),%rsi        # 40341f <trans_char+0xaf>
  40240f:	b8 00 00 00 00       	mov    $0x0,%eax
  402414:	e8 17 e9 ff ff       	callq  400d30 <__isoc99_sscanf@plt>
  402419:	e9 9f 03 00 00       	jmpq   4027bd <submitr+0x5c0>
  40241e:	48 b8 45 72 72 6f 72 	movabs $0x43203a726f727245,%rax
  402425:	3a 20 43 
  402428:	48 89 03             	mov    %rax,(%rbx)
  40242b:	48 b8 6c 69 65 6e 74 	movabs $0x6e7520746e65696c,%rax
  402432:	20 75 6e 
  402435:	48 89 43 08          	mov    %rax,0x8(%rbx)
  402439:	48 b8 61 62 6c 65 20 	movabs $0x206f7420656c6261,%rax
  402440:	74 6f 20 
  402443:	48 89 43 10          	mov    %rax,0x10(%rbx)
  402447:	48 b8 63 72 65 61 74 	movabs $0x7320657461657263,%rax
  40244e:	65 20 73 
  402451:	48 89 43 18          	mov    %rax,0x18(%rbx)
  402455:	c7 43 20 6f 63 6b 65 	movl   $0x656b636f,0x20(%rbx)
  40245c:	66 c7 43 24 74 00    	movw   $0x74,0x24(%rbx)
  402462:	b8 ff ff ff ff       	mov    $0xffffffff,%eax
  402467:	e9 18 03 00 00       	jmpq   402784 <submitr+0x587>
  40246c:	48 b8 45 72 72 6f 72 	movabs $0x44203a726f727245,%rax
  402473:	3a 20 44 
  402476:	48 89 03             	mov    %rax,(%rbx)
  402479:	48 b8 4e 53 20 69 73 	movabs $0x6e7520736920534e,%rax
  402480:	20 75 6e 
  402483:	48 89 43 08          	mov    %rax,0x8(%rbx)
  402487:	48 b8 61 62 6c 65 20 	movabs $0x206f7420656c6261,%rax
  40248e:	74 6f 20 
  402491:	48 89 43 10          	mov    %rax,0x10(%rbx)
  402495:	48 b8 72 65 73 6f 6c 	movabs $0x2065766c6f736572,%rax
  40249c:	76 65 20 
  40249f:	48 89 43 18          	mov    %rax,0x18(%rbx)
  4024a3:	48 b8 73 65 72 76 65 	movabs $0x6120726576726573,%rax
  4024aa:	72 20 61 
  4024ad:	48 89 43 20          	mov    %rax,0x20(%rbx)
  4024b1:	c7 43 28 64 64 72 65 	movl   $0x65726464,0x28(%rbx)
  4024b8:	66 c7 43 2c 73 73    	movw   $0x7373,0x2c(%rbx)
  4024be:	c6 43 2e 00          	movb   $0x0,0x2e(%rbx)
  4024c2:	89 ef                	mov    %ebp,%edi
  4024c4:	e8 c7 e7 ff ff       	callq  400c90 <close@plt>
  4024c9:	b8 ff ff ff ff       	mov    $0xffffffff,%eax
  4024ce:	e9 b1 02 00 00       	jmpq   402784 <submitr+0x587>
  4024d3:	48 b8 45 72 72 6f 72 	movabs $0x55203a726f727245,%rax
  4024da:	3a 20 55 
  4024dd:	48 89 03             	mov    %rax,(%rbx)
  4024e0:	48 b8 6e 61 62 6c 65 	movabs $0x6f7420656c62616e,%rax
  4024e7:	20 74 6f 
  4024ea:	48 89 43 08          	mov    %rax,0x8(%rbx)
  4024ee:	48 b8 20 63 6f 6e 6e 	movabs $0x7463656e6e6f6320,%rax
  4024f5:	65 63 74 
  4024f8:	48 89 43 10          	mov    %rax,0x10(%rbx)
  4024fc:	48 b8 20 74 6f 20 74 	movabs $0x20656874206f7420,%rax
  402503:	68 65 20 
  402506:	48 89 43 18          	mov    %rax,0x18(%rbx)
  40250a:	c7 43 20 73 65 72 76 	movl   $0x76726573,0x20(%rbx)
  402511:	66 c7 43 24 65 72    	movw   $0x7265,0x24(%rbx)
  402517:	c6 43 26 00          	movb   $0x0,0x26(%rbx)
  40251b:	89 ef                	mov    %ebp,%edi
  40251d:	e8 6e e7 ff ff       	callq  400c90 <close@plt>
  402522:	b8 ff ff ff ff       	mov    $0xffffffff,%eax
  402527:	e9 58 02 00 00       	jmpq   402784 <submitr+0x587>
  40252c:	48 b8 45 72 72 6f 72 	movabs $0x52203a726f727245,%rax
  402533:	3a 20 52 
  402536:	48 89 03             	mov    %rax,(%rbx)
  402539:	48 b8 65 73 75 6c 74 	movabs $0x747320746c757365,%rax
  402540:	20 73 74 
  402543:	48 89 43 08          	mov    %rax,0x8(%rbx)
  402547:	48 b8 72 69 6e 67 20 	movabs $0x6f6f7420676e6972,%rax
  40254e:	74 6f 6f 
  402551:	48 89 43 10          	mov    %rax,0x10(%rbx)
  402555:	48 b8 20 6c 61 72 67 	movabs $0x202e656772616c20,%rax
  40255c:	65 2e 20 
  40255f:	48 89 43 18          	mov    %rax,0x18(%rbx)
  402563:	48 b8 49 6e 63 72 65 	movabs $0x6573616572636e49,%rax
  40256a:	61 73 65 
  40256d:	48 89 43 20          	mov    %rax,0x20(%rbx)
  402571:	48 b8 20 53 55 42 4d 	movabs $0x5254494d42555320,%rax
  402578:	49 54 52 
  40257b:	48 89 43 28          	mov    %rax,0x28(%rbx)
  40257f:	48 b8 5f 4d 41 58 42 	movabs $0x46554258414d5f,%rax
  402586:	55 46 00 
  402589:	48 89 43 30          	mov    %rax,0x30(%rbx)
  40258d:	89 ef                	mov    %ebp,%edi
  40258f:	e8 fc e6 ff ff       	callq  400c90 <close@plt>
  402594:	b8 ff ff ff ff       	mov    $0xffffffff,%eax
  402599:	e9 e6 01 00 00       	jmpq   402784 <submitr+0x587>
  40259e:	48 b8 45 72 72 6f 72 	movabs $0x52203a726f727245,%rax
  4025a5:	3a 20 52 
  4025a8:	48 89 03             	mov    %rax,(%rbx)
  4025ab:	48 b8 65 73 75 6c 74 	movabs $0x747320746c757365,%rax
  4025b2:	20 73 74 
  4025b5:	48 89 43 08          	mov    %rax,0x8(%rbx)
  4025b9:	48 b8 72 69 6e 67 20 	movabs $0x6e6f6320676e6972,%rax
  4025c0:	63 6f 6e 
  4025c3:	48 89 43 10          	mov    %rax,0x10(%rbx)
  4025c7:	48 b8 74 61 69 6e 73 	movabs $0x6e6120736e696174,%rax
  4025ce:	20 61 6e 
  4025d1:	48 89 43 18          	mov    %rax,0x18(%rbx)
  4025d5:	48 b8 20 69 6c 6c 65 	movabs $0x6c6167656c6c6920,%rax
  4025dc:	67 61 6c 
  4025df:	48 89 43 20          	mov    %rax,0x20(%rbx)
  4025e3:	48 b8 20 6f 72 20 75 	movabs $0x72706e7520726f20,%rax
  4025ea:	6e 70 72 
  4025ed:	48 89 43 28          	mov    %rax,0x28(%rbx)
  4025f1:	48 b8 69 6e 74 61 62 	movabs $0x20656c6261746e69,%rax
  4025f8:	6c 65 20 
  4025fb:	48 89 43 30          	mov    %rax,0x30(%rbx)
  4025ff:	48 b8 63 68 61 72 61 	movabs $0x6574636172616863,%rax
  402606:	63 74 65 
  402609:	48 89 43 38          	mov    %rax,0x38(%rbx)
  40260d:	66 c7 43 40 72 2e    	movw   $0x2e72,0x40(%rbx)
  402613:	c6 43 42 00          	movb   $0x0,0x42(%rbx)
  402617:	89 ef                	mov    %ebp,%edi
  402619:	e8 72 e6 ff ff       	callq  400c90 <close@plt>
  40261e:	b8 ff ff ff ff       	mov    $0xffffffff,%eax
  402623:	e9 5c 01 00 00       	jmpq   402784 <submitr+0x587>
  402628:	48 b8 45 72 72 6f 72 	movabs $0x43203a726f727245,%rax
  40262f:	3a 20 43 
  402632:	48 89 03             	mov    %rax,(%rbx)
  402635:	48 b8 6c 69 65 6e 74 	movabs $0x6e7520746e65696c,%rax
  40263c:	20 75 6e 
  40263f:	48 89 43 08          	mov    %rax,0x8(%rbx)
  402643:	48 b8 61 62 6c 65 20 	movabs $0x206f7420656c6261,%rax
  40264a:	74 6f 20 
  40264d:	48 89 43 10          	mov    %rax,0x10(%rbx)
  402651:	48 b8 77 72 69 74 65 	movabs $0x6f74206574697277,%rax
  402658:	20 74 6f 
  40265b:	48 89 43 18          	mov    %rax,0x18(%rbx)
  40265f:	48 b8 20 74 68 65 20 	movabs $0x7365722065687420,%rax
  402666:	72 65 73 
  402669:	48 89 43 20          	mov    %rax,0x20(%rbx)
  40266d:	48 b8 75 6c 74 20 73 	movabs $0x7672657320746c75,%rax
  402674:	65 72 76 
  402677:	48 89 43 28          	mov    %rax,0x28(%rbx)
  40267b:	66 c7 43 30 65 72    	movw   $0x7265,0x30(%rbx)
  402681:	c6 43 32 00          	movb   $0x0,0x32(%rbx)
  402685:	89 ef                	mov    %ebp,%edi
  402687:	e8 04 e6 ff ff       	callq  400c90 <close@plt>
  40268c:	b8 ff ff ff ff       	mov    $0xffffffff,%eax
  402691:	e9 ee 00 00 00       	jmpq   402784 <submitr+0x587>
  402696:	48 b8 45 72 72 6f 72 	movabs $0x43203a726f727245,%rax
  40269d:	3a 20 43 
  4026a0:	48 89 03             	mov    %rax,(%rbx)
  4026a3:	48 b8 6c 69 65 6e 74 	movabs $0x6e7520746e65696c,%rax
  4026aa:	20 75 6e 
  4026ad:	48 89 43 08          	mov    %rax,0x8(%rbx)
  4026b1:	48 b8 61 62 6c 65 20 	movabs $0x206f7420656c6261,%rax
  4026b8:	74 6f 20 
  4026bb:	48 89 43 10          	mov    %rax,0x10(%rbx)
  4026bf:	48 b8 72 65 61 64 20 	movabs $0x7269662064616572,%rax
  4026c6:	66 69 72 
  4026c9:	48 89 43 18          	mov    %rax,0x18(%rbx)
  4026cd:	48 b8 73 74 20 68 65 	movabs $0x6564616568207473,%rax
  4026d4:	61 64 65 
  4026d7:	48 89 43 20          	mov    %rax,0x20(%rbx)
  4026db:	48 b8 72 20 66 72 6f 	movabs $0x72206d6f72662072,%rax
  4026e2:	6d 20 72 
  4026e5:	48 89 43 28          	mov    %rax,0x28(%rbx)
  4026e9:	48 b8 65 73 75 6c 74 	movabs $0x657320746c757365,%rax
  4026f0:	20 73 65 
  4026f3:	48 89 43 30          	mov    %rax,0x30(%rbx)
  4026f7:	c7 43 38 72 76 65 72 	movl   $0x72657672,0x38(%rbx)
  4026fe:	c6 43 3c 00          	movb   $0x0,0x3c(%rbx)
  402702:	89 ef                	mov    %ebp,%edi
  402704:	e8 87 e5 ff ff       	callq  400c90 <close@plt>
  402709:	b8 ff ff ff ff       	mov    $0xffffffff,%eax
  40270e:	eb 74                	jmp    402784 <submitr+0x587>
  402710:	48 b8 45 72 72 6f 72 	movabs $0x43203a726f727245,%rax
  402717:	3a 20 43 
  40271a:	48 89 03             	mov    %rax,(%rbx)
  40271d:	48 b8 6c 69 65 6e 74 	movabs $0x6e7520746e65696c,%rax
  402724:	20 75 6e 
  402727:	48 89 43 08          	mov    %rax,0x8(%rbx)
  40272b:	48 b8 61 62 6c 65 20 	movabs $0x206f7420656c6261,%rax
  402732:	74 6f 20 
  402735:	48 89 43 10          	mov    %rax,0x10(%rbx)
  402739:	48 b8 72 65 61 64 20 	movabs $0x6165682064616572,%rax
  402740:	68 65 61 
  402743:	48 89 43 18          	mov    %rax,0x18(%rbx)
  402747:	48 b8 64 65 72 73 20 	movabs $0x6f72662073726564,%rax
  40274e:	66 72 6f 
  402751:	48 89 43 20          	mov    %rax,0x20(%rbx)
  402755:	48 b8 6d 20 74 68 65 	movabs $0x657220656874206d,%rax
  40275c:	20 72 65 
  40275f:	48 89 43 28          	mov    %rax,0x28(%rbx)
  402763:	48 b8 73 75 6c 74 20 	movabs $0x72657320746c7573,%rax
  40276a:	73 65 72 
  40276d:	48 89 43 30          	mov    %rax,0x30(%rbx)
  402771:	c7 43 38 76 65 72 00 	movl   $0x726576,0x38(%rbx)
  402778:	89 ef                	mov    %ebp,%edi
  40277a:	e8 11 e5 ff ff       	callq  400c90 <close@plt>
  40277f:	b8 ff ff ff ff       	mov    $0xffffffff,%eax
  402784:	48 81 c4 58 a0 00 00 	add    $0xa058,%rsp
  40278b:	5b                   	pop    %rbx
  40278c:	5d                   	pop    %rbp
  40278d:	41 5c                	pop    %r12
  40278f:	41 5d                	pop    %r13
  402791:	41 5e                	pop    %r14
  402793:	41 5f                	pop    %r15
  402795:	c3                   	retq   
  402796:	85 c0                	test   %eax,%eax
  402798:	74 51                	je     4027eb <submitr+0x5ee>
  40279a:	48 8d b4 24 30 60 00 	lea    0x6030(%rsp),%rsi
  4027a1:	00 
  4027a2:	48 8d bc 24 30 80 00 	lea    0x8030(%rsp),%rdi
  4027a9:	00 
  4027aa:	ba 00 20 00 00       	mov    $0x2000,%edx
  4027af:	e8 ca f9 ff ff       	callq  40217e <rio_readlineb>
  4027b4:	48 85 c0             	test   %rax,%rax
  4027b7:	0f 8e 53 ff ff ff    	jle    402710 <submitr+0x513>
  4027bd:	0f b6 94 24 30 60 00 	movzbl 0x6030(%rsp),%edx
  4027c4:	00 
  4027c5:	b8 0d 00 00 00       	mov    $0xd,%eax
  4027ca:	29 d0                	sub    %edx,%eax
  4027cc:	75 c8                	jne    402796 <submitr+0x599>
  4027ce:	0f b6 94 24 31 60 00 	movzbl 0x6031(%rsp),%edx
  4027d5:	00 
  4027d6:	b8 0a 00 00 00       	mov    $0xa,%eax
  4027db:	29 d0                	sub    %edx,%eax
  4027dd:	75 b7                	jne    402796 <submitr+0x599>
  4027df:	0f b6 84 24 32 60 00 	movzbl 0x6032(%rsp),%eax
  4027e6:	00 
  4027e7:	f7 d8                	neg    %eax
  4027e9:	eb ab                	jmp    402796 <submitr+0x599>
  4027eb:	48 8d b4 24 30 60 00 	lea    0x6030(%rsp),%rsi
  4027f2:	00 
  4027f3:	48 8d bc 24 30 80 00 	lea    0x8030(%rsp),%rdi
  4027fa:	00 
  4027fb:	ba 00 20 00 00       	mov    $0x2000,%edx
  402800:	e8 79 f9 ff ff       	callq  40217e <rio_readlineb>
  402805:	48 85 c0             	test   %rax,%rax
  402808:	7e 67                	jle    402871 <submitr+0x674>
  40280a:	8b 94 24 2c 20 00 00 	mov    0x202c(%rsp),%edx
  402811:	81 fa c8 00 00 00    	cmp    $0xc8,%edx
  402817:	0f 85 d7 00 00 00    	jne    4028f4 <submitr+0x6f7>
  40281d:	48 8d b4 24 30 60 00 	lea    0x6030(%rsp),%rsi
  402824:	00 
  402825:	48 89 df             	mov    %rbx,%rdi
  402828:	e8 f3 e3 ff ff       	callq  400c20 <strcpy@plt>
  40282d:	89 ef                	mov    %ebp,%edi
  40282f:	e8 5c e4 ff ff       	callq  400c90 <close@plt>
  402834:	0f b6 03             	movzbl (%rbx),%eax
  402837:	ba 4f 00 00 00       	mov    $0x4f,%edx
  40283c:	29 c2                	sub    %eax,%edx
  40283e:	0f 85 da 00 00 00    	jne    40291e <submitr+0x721>
  402844:	0f b6 4b 01          	movzbl 0x1(%rbx),%ecx
  402848:	b8 4b 00 00 00       	mov    $0x4b,%eax
  40284d:	29 c8                	sub    %ecx,%eax
  40284f:	0f 85 cb 00 00 00    	jne    402920 <submitr+0x723>
  402855:	0f b6 4b 02          	movzbl 0x2(%rbx),%ecx
  402859:	b8 0a 00 00 00       	mov    $0xa,%eax
  40285e:	29 c8                	sub    %ecx,%eax
  402860:	0f 85 ba 00 00 00    	jne    402920 <submitr+0x723>
  402866:	0f b6 43 03          	movzbl 0x3(%rbx),%eax
  40286a:	f7 d8                	neg    %eax
  40286c:	e9 af 00 00 00       	jmpq   402920 <submitr+0x723>
  402871:	48 b8 45 72 72 6f 72 	movabs $0x43203a726f727245,%rax
  402878:	3a 20 43 
  40287b:	48 89 03             	mov    %rax,(%rbx)
  40287e:	48 b8 6c 69 65 6e 74 	movabs $0x6e7520746e65696c,%rax
  402885:	20 75 6e 
  402888:	48 89 43 08          	mov    %rax,0x8(%rbx)
  40288c:	48 b8 61 62 6c 65 20 	movabs $0x206f7420656c6261,%rax
  402893:	74 6f 20 
  402896:	48 89 43 10          	mov    %rax,0x10(%rbx)
  40289a:	48 b8 72 65 61 64 20 	movabs $0x6174732064616572,%rax
  4028a1:	73 74 61 
  4028a4:	48 89 43 18          	mov    %rax,0x18(%rbx)
  4028a8:	48 b8 74 75 73 20 6d 	movabs $0x7373656d20737574,%rax
  4028af:	65 73 73 
  4028b2:	48 89 43 20          	mov    %rax,0x20(%rbx)
  4028b6:	48 b8 61 67 65 20 66 	movabs $0x6d6f726620656761,%rax
  4028bd:	72 6f 6d 
  4028c0:	48 89 43 28          	mov    %rax,0x28(%rbx)
  4028c4:	48 b8 20 72 65 73 75 	movabs $0x20746c7573657220,%rax
  4028cb:	6c 74 20 
  4028ce:	48 89 43 30          	mov    %rax,0x30(%rbx)
  4028d2:	c7 43 38 73 65 72 76 	movl   $0x76726573,0x38(%rbx)
  4028d9:	66 c7 43 3c 65 72    	movw   $0x7265,0x3c(%rbx)
  4028df:	c6 43 3e 00          	movb   $0x0,0x3e(%rbx)
  4028e3:	89 ef                	mov    %ebp,%edi
  4028e5:	e8 a6 e3 ff ff       	callq  400c90 <close@plt>
  4028ea:	b8 ff ff ff ff       	mov    $0xffffffff,%eax
  4028ef:	e9 90 fe ff ff       	jmpq   402784 <submitr+0x587>
  4028f4:	48 8d 4c 24 20       	lea    0x20(%rsp),%rcx
  4028f9:	48 8d 35 e8 0a 00 00 	lea    0xae8(%rip),%rsi        # 4033e8 <trans_char+0x78>
  402900:	48 89 df             	mov    %rbx,%rdi
  402903:	b8 00 00 00 00       	mov    $0x0,%eax
  402908:	e8 93 e4 ff ff       	callq  400da0 <sprintf@plt>
  40290d:	89 ef                	mov    %ebp,%edi
  40290f:	e8 7c e3 ff ff       	callq  400c90 <close@plt>
  402914:	b8 ff ff ff ff       	mov    $0xffffffff,%eax
  402919:	e9 66 fe ff ff       	jmpq   402784 <submitr+0x587>
  40291e:	89 d0                	mov    %edx,%eax
  402920:	f7 d8                	neg    %eax
  402922:	0f 84 5c fe ff ff    	je     402784 <submitr+0x587>
  402928:	b9 05 00 00 00       	mov    $0x5,%ecx
  40292d:	48 8d 3d fc 0a 00 00 	lea    0xafc(%rip),%rdi        # 403430 <trans_char+0xc0>
  402934:	48 89 de             	mov    %rbx,%rsi
  402937:	f3 a6                	repz cmpsb %es:(%rdi),%ds:(%rsi)
  402939:	0f 97 c0             	seta   %al
  40293c:	0f 92 c1             	setb   %cl
  40293f:	29 c8                	sub    %ecx,%eax
  402941:	0f be c0             	movsbl %al,%eax
  402944:	85 c0                	test   %eax,%eax
  402946:	0f 84 38 fe ff ff    	je     402784 <submitr+0x587>
  40294c:	85 d2                	test   %edx,%edx
  40294e:	75 13                	jne    402963 <submitr+0x766>
  402950:	0f b6 43 01          	movzbl 0x1(%rbx),%eax
  402954:	ba 4b 00 00 00       	mov    $0x4b,%edx
  402959:	29 c2                	sub    %eax,%edx
  40295b:	75 06                	jne    402963 <submitr+0x766>
  40295d:	0f b6 53 02          	movzbl 0x2(%rbx),%edx
  402961:	f7 da                	neg    %edx
  402963:	89 d0                	mov    %edx,%eax
  402965:	f7 d8                	neg    %eax
  402967:	0f 84 17 fe ff ff    	je     402784 <submitr+0x587>
  40296d:	b8 ff ff ff ff       	mov    $0xffffffff,%eax
  402972:	e9 0d fe ff ff       	jmpq   402784 <submitr+0x587>

0000000000402977 <init_timeout>:
  402977:	85 ff                	test   %edi,%edi
  402979:	74 20                	je     40299b <init_timeout+0x24>
  40297b:	53                   	push   %rbx
  40297c:	89 fb                	mov    %edi,%ebx
  40297e:	85 ff                	test   %edi,%edi
  402980:	78 1b                	js     40299d <init_timeout+0x26>
  402982:	48 8d 35 05 f6 ff ff 	lea    -0x9fb(%rip),%rsi        # 401f8e <sigalrm_handler>
  402989:	bf 0e 00 00 00       	mov    $0xe,%edi
  40298e:	e8 1d e3 ff ff       	callq  400cb0 <signal@plt>
  402993:	89 df                	mov    %ebx,%edi
  402995:	e8 e6 e2 ff ff       	callq  400c80 <alarm@plt>
  40299a:	5b                   	pop    %rbx
  40299b:	f3 c3                	repz retq 
  40299d:	bb 00 00 00 00       	mov    $0x0,%ebx
  4029a2:	eb de                	jmp    402982 <init_timeout+0xb>

00000000004029a4 <init_driver>:
  4029a4:	41 54                	push   %r12
  4029a6:	55                   	push   %rbp
  4029a7:	53                   	push   %rbx
  4029a8:	48 83 ec 10          	sub    $0x10,%rsp
  4029ac:	48 89 fd             	mov    %rdi,%rbp
  4029af:	be 01 00 00 00       	mov    $0x1,%esi
  4029b4:	bf 0d 00 00 00       	mov    $0xd,%edi
  4029b9:	e8 f2 e2 ff ff       	callq  400cb0 <signal@plt>
  4029be:	be 01 00 00 00       	mov    $0x1,%esi
  4029c3:	bf 1d 00 00 00       	mov    $0x1d,%edi
  4029c8:	e8 e3 e2 ff ff       	callq  400cb0 <signal@plt>
  4029cd:	be 01 00 00 00       	mov    $0x1,%esi
  4029d2:	bf 1d 00 00 00       	mov    $0x1d,%edi
  4029d7:	e8 d4 e2 ff ff       	callq  400cb0 <signal@plt>
  4029dc:	ba 00 00 00 00       	mov    $0x0,%edx
  4029e1:	be 01 00 00 00       	mov    $0x1,%esi
  4029e6:	bf 02 00 00 00       	mov    $0x2,%edi
  4029eb:	e8 e0 e3 ff ff       	callq  400dd0 <socket@plt>
  4029f0:	85 c0                	test   %eax,%eax
  4029f2:	0f 88 80 00 00 00    	js     402a78 <init_driver+0xd4>
  4029f8:	89 c3                	mov    %eax,%ebx
  4029fa:	48 8d 3d 34 0a 00 00 	lea    0xa34(%rip),%rdi        # 403435 <trans_char+0xc5>
  402a01:	e8 ba e2 ff ff       	callq  400cc0 <gethostbyname@plt>
  402a06:	48 85 c0             	test   %rax,%rax
  402a09:	0f 84 b5 00 00 00    	je     402ac4 <init_driver+0x120>
  402a0f:	48 c7 04 24 00 00 00 	movq   $0x0,(%rsp)
  402a16:	00 
  402a17:	48 c7 44 24 08 00 00 	movq   $0x0,0x8(%rsp)
  402a1e:	00 00 
  402a20:	66 c7 04 24 02 00    	movw   $0x2,(%rsp)
  402a26:	48 8b 48 18          	mov    0x18(%rax),%rcx
  402a2a:	48 63 50 14          	movslq 0x14(%rax),%rdx
  402a2e:	48 8d 74 24 04       	lea    0x4(%rsp),%rsi
  402a33:	48 8b 39             	mov    (%rcx),%rdi
  402a36:	e8 15 e3 ff ff       	callq  400d50 <bcopy@plt>
  402a3b:	66 c7 44 24 02 3c a4 	movw   $0xa43c,0x2(%rsp)
  402a42:	ba 10 00 00 00       	mov    $0x10,%edx
  402a47:	48 89 e6             	mov    %rsp,%rsi
  402a4a:	89 df                	mov    %ebx,%edi
  402a4c:	e8 6f e3 ff ff       	callq  400dc0 <connect@plt>
  402a51:	85 c0                	test   %eax,%eax
  402a53:	0f 88 d3 00 00 00    	js     402b2c <init_driver+0x188>
  402a59:	89 df                	mov    %ebx,%edi
  402a5b:	e8 30 e2 ff ff       	callq  400c90 <close@plt>
  402a60:	66 c7 45 00 4f 4b    	movw   $0x4b4f,0x0(%rbp)
  402a66:	c6 45 02 00          	movb   $0x0,0x2(%rbp)
  402a6a:	b8 00 00 00 00       	mov    $0x0,%eax
  402a6f:	48 83 c4 10          	add    $0x10,%rsp
  402a73:	5b                   	pop    %rbx
  402a74:	5d                   	pop    %rbp
  402a75:	41 5c                	pop    %r12
  402a77:	c3                   	retq   
  402a78:	48 b8 45 72 72 6f 72 	movabs $0x43203a726f727245,%rax
  402a7f:	3a 20 43 
  402a82:	48 89 45 00          	mov    %rax,0x0(%rbp)
  402a86:	48 b8 6c 69 65 6e 74 	movabs $0x6e7520746e65696c,%rax
  402a8d:	20 75 6e 
  402a90:	48 89 45 08          	mov    %rax,0x8(%rbp)
  402a94:	48 b8 61 62 6c 65 20 	movabs $0x206f7420656c6261,%rax
  402a9b:	74 6f 20 
  402a9e:	48 89 45 10          	mov    %rax,0x10(%rbp)
  402aa2:	48 b8 63 72 65 61 74 	movabs $0x7320657461657263,%rax
  402aa9:	65 20 73 
  402aac:	48 89 45 18          	mov    %rax,0x18(%rbp)
  402ab0:	c7 45 20 6f 63 6b 65 	movl   $0x656b636f,0x20(%rbp)
  402ab7:	66 c7 45 24 74 00    	movw   $0x74,0x24(%rbp)
  402abd:	b8 ff ff ff ff       	mov    $0xffffffff,%eax
  402ac2:	eb ab                	jmp    402a6f <init_driver+0xcb>
  402ac4:	48 b8 45 72 72 6f 72 	movabs $0x44203a726f727245,%rax
  402acb:	3a 20 44 
  402ace:	48 89 45 00          	mov    %rax,0x0(%rbp)
  402ad2:	48 b8 4e 53 20 69 73 	movabs $0x6e7520736920534e,%rax
  402ad9:	20 75 6e 
  402adc:	48 89 45 08          	mov    %rax,0x8(%rbp)
  402ae0:	48 b8 61 62 6c 65 20 	movabs $0x206f7420656c6261,%rax
  402ae7:	74 6f 20 
  402aea:	48 89 45 10          	mov    %rax,0x10(%rbp)
  402aee:	48 b8 72 65 73 6f 6c 	movabs $0x2065766c6f736572,%rax
  402af5:	76 65 20 
  402af8:	48 89 45 18          	mov    %rax,0x18(%rbp)
  402afc:	48 b8 73 65 72 76 65 	movabs $0x6120726576726573,%rax
  402b03:	72 20 61 
  402b06:	48 89 45 20          	mov    %rax,0x20(%rbp)
  402b0a:	c7 45 28 64 64 72 65 	movl   $0x65726464,0x28(%rbp)
  402b11:	66 c7 45 2c 73 73    	movw   $0x7373,0x2c(%rbp)
  402b17:	c6 45 2e 00          	movb   $0x0,0x2e(%rbp)
  402b1b:	89 df                	mov    %ebx,%edi
  402b1d:	e8 6e e1 ff ff       	callq  400c90 <close@plt>
  402b22:	b8 ff ff ff ff       	mov    $0xffffffff,%eax
  402b27:	e9 43 ff ff ff       	jmpq   402a6f <init_driver+0xcb>
  402b2c:	48 b8 45 72 72 6f 72 	movabs $0x55203a726f727245,%rax
  402b33:	3a 20 55 
  402b36:	48 89 45 00          	mov    %rax,0x0(%rbp)
  402b3a:	48 b8 6e 61 62 6c 65 	movabs $0x6f7420656c62616e,%rax
  402b41:	20 74 6f 
  402b44:	48 89 45 08          	mov    %rax,0x8(%rbp)
  402b48:	48 b8 20 63 6f 6e 6e 	movabs $0x7463656e6e6f6320,%rax
  402b4f:	65 63 74 
  402b52:	48 89 45 10          	mov    %rax,0x10(%rbp)
  402b56:	48 b8 20 74 6f 20 73 	movabs $0x76726573206f7420,%rax
  402b5d:	65 72 76 
  402b60:	48 89 45 18          	mov    %rax,0x18(%rbp)
  402b64:	66 c7 45 20 65 72    	movw   $0x7265,0x20(%rbp)
  402b6a:	c6 45 22 00          	movb   $0x0,0x22(%rbp)
  402b6e:	89 df                	mov    %ebx,%edi
  402b70:	e8 1b e1 ff ff       	callq  400c90 <close@plt>
  402b75:	b8 ff ff ff ff       	mov    $0xffffffff,%eax
  402b7a:	e9 f0 fe ff ff       	jmpq   402a6f <init_driver+0xcb>

0000000000402b7f <driver_post>:
  402b7f:	53                   	push   %rbx
  402b80:	4c 89 cb             	mov    %r9,%rbx
  402b83:	45 85 c0             	test   %r8d,%r8d
  402b86:	75 18                	jne    402ba0 <driver_post+0x21>
  402b88:	48 85 ff             	test   %rdi,%rdi
  402b8b:	74 05                	je     402b92 <driver_post+0x13>
  402b8d:	80 3f 00             	cmpb   $0x0,(%rdi)
  402b90:	75 32                	jne    402bc4 <driver_post+0x45>
  402b92:	66 c7 03 4f 4b       	movw   $0x4b4f,(%rbx)
  402b97:	c6 43 02 00          	movb   $0x0,0x2(%rbx)
  402b9b:	44 89 c0             	mov    %r8d,%eax
  402b9e:	5b                   	pop    %rbx
  402b9f:	c3                   	retq   
  402ba0:	48 89 ce             	mov    %rcx,%rsi
  402ba3:	48 8d 3d 99 08 00 00 	lea    0x899(%rip),%rdi        # 403443 <trans_char+0xd3>
  402baa:	b8 00 00 00 00       	mov    $0x0,%eax
  402baf:	e8 ac e0 ff ff       	callq  400c60 <printf@plt>
  402bb4:	66 c7 03 4f 4b       	movw   $0x4b4f,(%rbx)
  402bb9:	c6 43 02 00          	movb   $0x0,0x2(%rbx)
  402bbd:	b8 00 00 00 00       	mov    $0x0,%eax
  402bc2:	eb da                	jmp    402b9e <driver_post+0x1f>
  402bc4:	48 83 ec 08          	sub    $0x8,%rsp
  402bc8:	41 51                	push   %r9
  402bca:	49 89 c9             	mov    %rcx,%r9
  402bcd:	49 89 d0             	mov    %rdx,%r8
  402bd0:	48 89 f9             	mov    %rdi,%rcx
  402bd3:	48 89 f2             	mov    %rsi,%rdx
  402bd6:	be a4 3c 00 00       	mov    $0x3ca4,%esi
  402bdb:	48 8d 3d 53 08 00 00 	lea    0x853(%rip),%rdi        # 403435 <trans_char+0xc5>
  402be2:	e8 16 f6 ff ff       	callq  4021fd <submitr>
  402be7:	48 83 c4 10          	add    $0x10,%rsp
  402beb:	eb b1                	jmp    402b9e <driver_post+0x1f>

0000000000402bed <check>:
  402bed:	89 f8                	mov    %edi,%eax
  402bef:	c1 e8 1c             	shr    $0x1c,%eax
  402bf2:	85 c0                	test   %eax,%eax
  402bf4:	74 1d                	je     402c13 <check+0x26>
  402bf6:	b9 00 00 00 00       	mov    $0x0,%ecx
  402bfb:	83 f9 1f             	cmp    $0x1f,%ecx
  402bfe:	7f 0d                	jg     402c0d <check+0x20>
  402c00:	89 f8                	mov    %edi,%eax
  402c02:	d3 e8                	shr    %cl,%eax
  402c04:	3c 0a                	cmp    $0xa,%al
  402c06:	74 11                	je     402c19 <check+0x2c>
  402c08:	83 c1 08             	add    $0x8,%ecx
  402c0b:	eb ee                	jmp    402bfb <check+0xe>
  402c0d:	b8 01 00 00 00       	mov    $0x1,%eax
  402c12:	c3                   	retq   
  402c13:	b8 00 00 00 00       	mov    $0x0,%eax
  402c18:	c3                   	retq   
  402c19:	b8 00 00 00 00       	mov    $0x0,%eax
  402c1e:	c3                   	retq   

0000000000402c1f <gencookie>:
  402c1f:	53                   	push   %rbx
  402c20:	83 c7 01             	add    $0x1,%edi
  402c23:	e8 d8 df ff ff       	callq  400c00 <srandom@plt>
  402c28:	e8 e3 e0 ff ff       	callq  400d10 <random@plt>
  402c2d:	89 c3                	mov    %eax,%ebx
  402c2f:	89 c7                	mov    %eax,%edi
  402c31:	e8 b7 ff ff ff       	callq  402bed <check>
  402c36:	85 c0                	test   %eax,%eax
  402c38:	74 ee                	je     402c28 <gencookie+0x9>
  402c3a:	89 d8                	mov    %ebx,%eax
  402c3c:	5b                   	pop    %rbx
  402c3d:	c3                   	retq   
  402c3e:	66 90                	xchg   %ax,%ax

0000000000402c40 <__libc_csu_init>:
  402c40:	41 57                	push   %r15
  402c42:	41 56                	push   %r14
  402c44:	41 89 ff             	mov    %edi,%r15d
  402c47:	41 55                	push   %r13
  402c49:	41 54                	push   %r12
  402c4b:	4c 8d 25 b6 11 20 00 	lea    0x2011b6(%rip),%r12        # 603e08 <__frame_dummy_init_array_entry>
  402c52:	55                   	push   %rbp
  402c53:	48 8d 2d b6 11 20 00 	lea    0x2011b6(%rip),%rbp        # 603e10 <__init_array_end>
  402c5a:	53                   	push   %rbx
  402c5b:	49 89 f6             	mov    %rsi,%r14
  402c5e:	49 89 d5             	mov    %rdx,%r13
  402c61:	4c 29 e5             	sub    %r12,%rbp
  402c64:	48 83 ec 08          	sub    $0x8,%rsp
  402c68:	48 c1 fd 03          	sar    $0x3,%rbp
  402c6c:	e8 3f df ff ff       	callq  400bb0 <_init>
  402c71:	48 85 ed             	test   %rbp,%rbp
  402c74:	74 20                	je     402c96 <__libc_csu_init+0x56>
  402c76:	31 db                	xor    %ebx,%ebx
  402c78:	0f 1f 84 00 00 00 00 	nopl   0x0(%rax,%rax,1)
  402c7f:	00 
  402c80:	4c 89 ea             	mov    %r13,%rdx
  402c83:	4c 89 f6             	mov    %r14,%rsi
  402c86:	44 89 ff             	mov    %r15d,%edi
  402c89:	41 ff 14 dc          	callq  *(%r12,%rbx,8)
  402c8d:	48 83 c3 01          	add    $0x1,%rbx
  402c91:	48 39 dd             	cmp    %rbx,%rbp
  402c94:	75 ea                	jne    402c80 <__libc_csu_init+0x40>
  402c96:	48 83 c4 08          	add    $0x8,%rsp
  402c9a:	5b                   	pop    %rbx
  402c9b:	5d                   	pop    %rbp
  402c9c:	41 5c                	pop    %r12
  402c9e:	41 5d                	pop    %r13
  402ca0:	41 5e                	pop    %r14
  402ca2:	41 5f                	pop    %r15
  402ca4:	c3                   	retq   
  402ca5:	90                   	nop
  402ca6:	66 2e 0f 1f 84 00 00 	nopw   %cs:0x0(%rax,%rax,1)
  402cad:	00 00 00 

0000000000402cb0 <__libc_csu_fini>:
  402cb0:	f3 c3                	repz retq 

Disassembly of section .fini:

0000000000402cb4 <_fini>:
  402cb4:	48 83 ec 08          	sub    $0x8,%rsp
  402cb8:	48 83 c4 08          	add    $0x8,%rsp
  402cbc:	c3                   	retq   
