
rtarget:     file format elf64-x86-64


Disassembly of section .init:

0000000000400bb0 <_init>:
  400bb0:	48 83 ec 08          	sub    $0x8,%rsp
  400bb4:	48 8b 05 3d 44 20 00 	mov    0x20443d(%rip),%rax        # 604ff8 <__gmon_start__>
  400bbb:	48 85 c0             	test   %rax,%rax
  400bbe:	74 02                	je     400bc2 <_init+0x12>
  400bc0:	ff d0                	callq  *%rax
  400bc2:	48 83 c4 08          	add    $0x8,%rsp
  400bc6:	c3                   	retq   

Disassembly of section .plt:

0000000000400bd0 <.plt>:
  400bd0:	ff 35 32 44 20 00    	pushq  0x204432(%rip)        # 605008 <_GLOBAL_OFFSET_TABLE_+0x8>
  400bd6:	ff 25 34 44 20 00    	jmpq   *0x204434(%rip)        # 605010 <_GLOBAL_OFFSET_TABLE_+0x10>
  400bdc:	0f 1f 40 00          	nopl   0x0(%rax)

0000000000400be0 <strcasecmp@plt>:
  400be0:	ff 25 32 44 20 00    	jmpq   *0x204432(%rip)        # 605018 <strcasecmp@GLIBC_2.2.5>
  400be6:	68 00 00 00 00       	pushq  $0x0
  400beb:	e9 e0 ff ff ff       	jmpq   400bd0 <.plt>

0000000000400bf0 <__errno_location@plt>:
  400bf0:	ff 25 2a 44 20 00    	jmpq   *0x20442a(%rip)        # 605020 <__errno_location@GLIBC_2.2.5>
  400bf6:	68 01 00 00 00       	pushq  $0x1
  400bfb:	e9 d0 ff ff ff       	jmpq   400bd0 <.plt>

0000000000400c00 <srandom@plt>:
  400c00:	ff 25 22 44 20 00    	jmpq   *0x204422(%rip)        # 605028 <srandom@GLIBC_2.2.5>
  400c06:	68 02 00 00 00       	pushq  $0x2
  400c0b:	e9 c0 ff ff ff       	jmpq   400bd0 <.plt>

0000000000400c10 <strncmp@plt>:
  400c10:	ff 25 1a 44 20 00    	jmpq   *0x20441a(%rip)        # 605030 <strncmp@GLIBC_2.2.5>
  400c16:	68 03 00 00 00       	pushq  $0x3
  400c1b:	e9 b0 ff ff ff       	jmpq   400bd0 <.plt>

0000000000400c20 <strcpy@plt>:
  400c20:	ff 25 12 44 20 00    	jmpq   *0x204412(%rip)        # 605038 <strcpy@GLIBC_2.2.5>
  400c26:	68 04 00 00 00       	pushq  $0x4
  400c2b:	e9 a0 ff ff ff       	jmpq   400bd0 <.plt>

0000000000400c30 <puts@plt>:
  400c30:	ff 25 0a 44 20 00    	jmpq   *0x20440a(%rip)        # 605040 <puts@GLIBC_2.2.5>
  400c36:	68 05 00 00 00       	pushq  $0x5
  400c3b:	e9 90 ff ff ff       	jmpq   400bd0 <.plt>

0000000000400c40 <write@plt>:
  400c40:	ff 25 02 44 20 00    	jmpq   *0x204402(%rip)        # 605048 <write@GLIBC_2.2.5>
  400c46:	68 06 00 00 00       	pushq  $0x6
  400c4b:	e9 80 ff ff ff       	jmpq   400bd0 <.plt>

0000000000400c50 <mmap@plt>:
  400c50:	ff 25 fa 43 20 00    	jmpq   *0x2043fa(%rip)        # 605050 <mmap@GLIBC_2.2.5>
  400c56:	68 07 00 00 00       	pushq  $0x7
  400c5b:	e9 70 ff ff ff       	jmpq   400bd0 <.plt>

0000000000400c60 <printf@plt>:
  400c60:	ff 25 f2 43 20 00    	jmpq   *0x2043f2(%rip)        # 605058 <printf@GLIBC_2.2.5>
  400c66:	68 08 00 00 00       	pushq  $0x8
  400c6b:	e9 60 ff ff ff       	jmpq   400bd0 <.plt>

0000000000400c70 <memset@plt>:
  400c70:	ff 25 ea 43 20 00    	jmpq   *0x2043ea(%rip)        # 605060 <memset@GLIBC_2.2.5>
  400c76:	68 09 00 00 00       	pushq  $0x9
  400c7b:	e9 50 ff ff ff       	jmpq   400bd0 <.plt>

0000000000400c80 <alarm@plt>:
  400c80:	ff 25 e2 43 20 00    	jmpq   *0x2043e2(%rip)        # 605068 <alarm@GLIBC_2.2.5>
  400c86:	68 0a 00 00 00       	pushq  $0xa
  400c8b:	e9 40 ff ff ff       	jmpq   400bd0 <.plt>

0000000000400c90 <close@plt>:
  400c90:	ff 25 da 43 20 00    	jmpq   *0x2043da(%rip)        # 605070 <close@GLIBC_2.2.5>
  400c96:	68 0b 00 00 00       	pushq  $0xb
  400c9b:	e9 30 ff ff ff       	jmpq   400bd0 <.plt>

0000000000400ca0 <read@plt>:
  400ca0:	ff 25 d2 43 20 00    	jmpq   *0x2043d2(%rip)        # 605078 <read@GLIBC_2.2.5>
  400ca6:	68 0c 00 00 00       	pushq  $0xc
  400cab:	e9 20 ff ff ff       	jmpq   400bd0 <.plt>

0000000000400cb0 <signal@plt>:
  400cb0:	ff 25 ca 43 20 00    	jmpq   *0x2043ca(%rip)        # 605080 <signal@GLIBC_2.2.5>
  400cb6:	68 0d 00 00 00       	pushq  $0xd
  400cbb:	e9 10 ff ff ff       	jmpq   400bd0 <.plt>

0000000000400cc0 <gethostbyname@plt>:
  400cc0:	ff 25 c2 43 20 00    	jmpq   *0x2043c2(%rip)        # 605088 <gethostbyname@GLIBC_2.2.5>
  400cc6:	68 0e 00 00 00       	pushq  $0xe
  400ccb:	e9 00 ff ff ff       	jmpq   400bd0 <.plt>

0000000000400cd0 <fprintf@plt>:
  400cd0:	ff 25 ba 43 20 00    	jmpq   *0x2043ba(%rip)        # 605090 <fprintf@GLIBC_2.2.5>
  400cd6:	68 0f 00 00 00       	pushq  $0xf
  400cdb:	e9 f0 fe ff ff       	jmpq   400bd0 <.plt>

0000000000400ce0 <strtol@plt>:
  400ce0:	ff 25 b2 43 20 00    	jmpq   *0x2043b2(%rip)        # 605098 <strtol@GLIBC_2.2.5>
  400ce6:	68 10 00 00 00       	pushq  $0x10
  400ceb:	e9 e0 fe ff ff       	jmpq   400bd0 <.plt>

0000000000400cf0 <memcpy@plt>:
  400cf0:	ff 25 aa 43 20 00    	jmpq   *0x2043aa(%rip)        # 6050a0 <memcpy@GLIBC_2.14>
  400cf6:	68 11 00 00 00       	pushq  $0x11
  400cfb:	e9 d0 fe ff ff       	jmpq   400bd0 <.plt>

0000000000400d00 <time@plt>:
  400d00:	ff 25 a2 43 20 00    	jmpq   *0x2043a2(%rip)        # 6050a8 <time@GLIBC_2.2.5>
  400d06:	68 12 00 00 00       	pushq  $0x12
  400d0b:	e9 c0 fe ff ff       	jmpq   400bd0 <.plt>

0000000000400d10 <random@plt>:
  400d10:	ff 25 9a 43 20 00    	jmpq   *0x20439a(%rip)        # 6050b0 <random@GLIBC_2.2.5>
  400d16:	68 13 00 00 00       	pushq  $0x13
  400d1b:	e9 b0 fe ff ff       	jmpq   400bd0 <.plt>

0000000000400d20 <_IO_getc@plt>:
  400d20:	ff 25 92 43 20 00    	jmpq   *0x204392(%rip)        # 6050b8 <_IO_getc@GLIBC_2.2.5>
  400d26:	68 14 00 00 00       	pushq  $0x14
  400d2b:	e9 a0 fe ff ff       	jmpq   400bd0 <.plt>

0000000000400d30 <__isoc99_sscanf@plt>:
  400d30:	ff 25 8a 43 20 00    	jmpq   *0x20438a(%rip)        # 6050c0 <__isoc99_sscanf@GLIBC_2.7>
  400d36:	68 15 00 00 00       	pushq  $0x15
  400d3b:	e9 90 fe ff ff       	jmpq   400bd0 <.plt>

0000000000400d40 <munmap@plt>:
  400d40:	ff 25 82 43 20 00    	jmpq   *0x204382(%rip)        # 6050c8 <munmap@GLIBC_2.2.5>
  400d46:	68 16 00 00 00       	pushq  $0x16
  400d4b:	e9 80 fe ff ff       	jmpq   400bd0 <.plt>

0000000000400d50 <bcopy@plt>:
  400d50:	ff 25 7a 43 20 00    	jmpq   *0x20437a(%rip)        # 6050d0 <bcopy@GLIBC_2.2.5>
  400d56:	68 17 00 00 00       	pushq  $0x17
  400d5b:	e9 70 fe ff ff       	jmpq   400bd0 <.plt>

0000000000400d60 <fopen@plt>:
  400d60:	ff 25 72 43 20 00    	jmpq   *0x204372(%rip)        # 6050d8 <fopen@GLIBC_2.2.5>
  400d66:	68 18 00 00 00       	pushq  $0x18
  400d6b:	e9 60 fe ff ff       	jmpq   400bd0 <.plt>

0000000000400d70 <getopt@plt>:
  400d70:	ff 25 6a 43 20 00    	jmpq   *0x20436a(%rip)        # 6050e0 <getopt@GLIBC_2.2.5>
  400d76:	68 19 00 00 00       	pushq  $0x19
  400d7b:	e9 50 fe ff ff       	jmpq   400bd0 <.plt>

0000000000400d80 <strtoul@plt>:
  400d80:	ff 25 62 43 20 00    	jmpq   *0x204362(%rip)        # 6050e8 <strtoul@GLIBC_2.2.5>
  400d86:	68 1a 00 00 00       	pushq  $0x1a
  400d8b:	e9 40 fe ff ff       	jmpq   400bd0 <.plt>

0000000000400d90 <gethostname@plt>:
  400d90:	ff 25 5a 43 20 00    	jmpq   *0x20435a(%rip)        # 6050f0 <gethostname@GLIBC_2.2.5>
  400d96:	68 1b 00 00 00       	pushq  $0x1b
  400d9b:	e9 30 fe ff ff       	jmpq   400bd0 <.plt>

0000000000400da0 <sprintf@plt>:
  400da0:	ff 25 52 43 20 00    	jmpq   *0x204352(%rip)        # 6050f8 <sprintf@GLIBC_2.2.5>
  400da6:	68 1c 00 00 00       	pushq  $0x1c
  400dab:	e9 20 fe ff ff       	jmpq   400bd0 <.plt>

0000000000400db0 <exit@plt>:
  400db0:	ff 25 4a 43 20 00    	jmpq   *0x20434a(%rip)        # 605100 <exit@GLIBC_2.2.5>
  400db6:	68 1d 00 00 00       	pushq  $0x1d
  400dbb:	e9 10 fe ff ff       	jmpq   400bd0 <.plt>

0000000000400dc0 <connect@plt>:
  400dc0:	ff 25 42 43 20 00    	jmpq   *0x204342(%rip)        # 605108 <connect@GLIBC_2.2.5>
  400dc6:	68 1e 00 00 00       	pushq  $0x1e
  400dcb:	e9 00 fe ff ff       	jmpq   400bd0 <.plt>

0000000000400dd0 <socket@plt>:
  400dd0:	ff 25 3a 43 20 00    	jmpq   *0x20433a(%rip)        # 605110 <socket@GLIBC_2.2.5>
  400dd6:	68 1f 00 00 00       	pushq  $0x1f
  400ddb:	e9 f0 fd ff ff       	jmpq   400bd0 <.plt>

Disassembly of section .text:

0000000000400de0 <_start>:
  400de0:	31 ed                	xor    %ebp,%ebp
  400de2:	49 89 d1             	mov    %rdx,%r9
  400de5:	5e                   	pop    %rsi
  400de6:	48 89 e2             	mov    %rsp,%rdx
  400de9:	48 83 e4 f0          	and    $0xfffffffffffffff0,%rsp
  400ded:	50                   	push   %rax
  400dee:	54                   	push   %rsp
  400def:	49 c7 c0 e0 2d 40 00 	mov    $0x402de0,%r8
  400df6:	48 c7 c1 70 2d 40 00 	mov    $0x402d70,%rcx
  400dfd:	48 c7 c7 8d 10 40 00 	mov    $0x40108d,%rdi
  400e04:	ff 15 e6 41 20 00    	callq  *0x2041e6(%rip)        # 604ff0 <__libc_start_main@GLIBC_2.2.5>
  400e0a:	f4                   	hlt    
  400e0b:	0f 1f 44 00 00       	nopl   0x0(%rax,%rax,1)

0000000000400e10 <deregister_tm_clones>:
  400e10:	b8 97 54 60 00       	mov    $0x605497,%eax
  400e15:	55                   	push   %rbp
  400e16:	48 2d 90 54 60 00    	sub    $0x605490,%rax
  400e1c:	48 83 f8 0e          	cmp    $0xe,%rax
  400e20:	48 89 e5             	mov    %rsp,%rbp
  400e23:	76 1b                	jbe    400e40 <deregister_tm_clones+0x30>
  400e25:	b8 00 00 00 00       	mov    $0x0,%eax
  400e2a:	48 85 c0             	test   %rax,%rax
  400e2d:	74 11                	je     400e40 <deregister_tm_clones+0x30>
  400e2f:	5d                   	pop    %rbp
  400e30:	bf 90 54 60 00       	mov    $0x605490,%edi
  400e35:	ff e0                	jmpq   *%rax
  400e37:	66 0f 1f 84 00 00 00 	nopw   0x0(%rax,%rax,1)
  400e3e:	00 00 
  400e40:	5d                   	pop    %rbp
  400e41:	c3                   	retq   
  400e42:	0f 1f 40 00          	nopl   0x0(%rax)
  400e46:	66 2e 0f 1f 84 00 00 	nopw   %cs:0x0(%rax,%rax,1)
  400e4d:	00 00 00 

0000000000400e50 <register_tm_clones>:
  400e50:	be 90 54 60 00       	mov    $0x605490,%esi
  400e55:	55                   	push   %rbp
  400e56:	48 81 ee 90 54 60 00 	sub    $0x605490,%rsi
  400e5d:	48 c1 fe 03          	sar    $0x3,%rsi
  400e61:	48 89 e5             	mov    %rsp,%rbp
  400e64:	48 89 f0             	mov    %rsi,%rax
  400e67:	48 c1 e8 3f          	shr    $0x3f,%rax
  400e6b:	48 01 c6             	add    %rax,%rsi
  400e6e:	48 d1 fe             	sar    %rsi
  400e71:	74 15                	je     400e88 <register_tm_clones+0x38>
  400e73:	b8 00 00 00 00       	mov    $0x0,%eax
  400e78:	48 85 c0             	test   %rax,%rax
  400e7b:	74 0b                	je     400e88 <register_tm_clones+0x38>
  400e7d:	5d                   	pop    %rbp
  400e7e:	bf 90 54 60 00       	mov    $0x605490,%edi
  400e83:	ff e0                	jmpq   *%rax
  400e85:	0f 1f 00             	nopl   (%rax)
  400e88:	5d                   	pop    %rbp
  400e89:	c3                   	retq   
  400e8a:	66 0f 1f 44 00 00    	nopw   0x0(%rax,%rax,1)

0000000000400e90 <__do_global_dtors_aux>:
  400e90:	80 3d 31 46 20 00 00 	cmpb   $0x0,0x204631(%rip)        # 6054c8 <completed.6972>
  400e97:	75 11                	jne    400eaa <__do_global_dtors_aux+0x1a>
  400e99:	55                   	push   %rbp
  400e9a:	48 89 e5             	mov    %rsp,%rbp
  400e9d:	e8 6e ff ff ff       	callq  400e10 <deregister_tm_clones>
  400ea2:	5d                   	pop    %rbp
  400ea3:	c6 05 1e 46 20 00 01 	movb   $0x1,0x20461e(%rip)        # 6054c8 <completed.6972>
  400eaa:	f3 c3                	repz retq 
  400eac:	0f 1f 40 00          	nopl   0x0(%rax)

0000000000400eb0 <frame_dummy>:
  400eb0:	bf 18 4e 60 00       	mov    $0x604e18,%edi
  400eb5:	48 83 3f 00          	cmpq   $0x0,(%rdi)
  400eb9:	75 05                	jne    400ec0 <frame_dummy+0x10>
  400ebb:	eb 93                	jmp    400e50 <register_tm_clones>
  400ebd:	0f 1f 00             	nopl   (%rax)
  400ec0:	b8 00 00 00 00       	mov    $0x0,%eax
  400ec5:	48 85 c0             	test   %rax,%rax
  400ec8:	74 f1                	je     400ebb <frame_dummy+0xb>
  400eca:	55                   	push   %rbp
  400ecb:	48 89 e5             	mov    %rsp,%rbp
  400ece:	ff d0                	callq  *%rax
  400ed0:	5d                   	pop    %rbp
  400ed1:	e9 7a ff ff ff       	jmpq   400e50 <register_tm_clones>

0000000000400ed6 <usage>:
  400ed6:	48 83 ec 08          	sub    $0x8,%rsp
  400eda:	48 89 fe             	mov    %rdi,%rsi
  400edd:	83 3d 24 46 20 00 00 	cmpl   $0x0,0x204624(%rip)        # 605508 <is_checker>
  400ee4:	74 4b                	je     400f31 <usage+0x5b>
  400ee6:	48 8d 3d 0b 1f 00 00 	lea    0x1f0b(%rip),%rdi        # 402df8 <_IO_stdin_used+0x8>
  400eed:	b8 00 00 00 00       	mov    $0x0,%eax
  400ef2:	e8 69 fd ff ff       	callq  400c60 <printf@plt>
  400ef7:	48 8d 3d 32 1f 00 00 	lea    0x1f32(%rip),%rdi        # 402e30 <_IO_stdin_used+0x40>
  400efe:	e8 2d fd ff ff       	callq  400c30 <puts@plt>
  400f03:	48 8d 3d 5e 20 00 00 	lea    0x205e(%rip),%rdi        # 402f68 <_IO_stdin_used+0x178>
  400f0a:	e8 21 fd ff ff       	callq  400c30 <puts@plt>
  400f0f:	48 8d 3d 42 1f 00 00 	lea    0x1f42(%rip),%rdi        # 402e58 <_IO_stdin_used+0x68>
  400f16:	e8 15 fd ff ff       	callq  400c30 <puts@plt>
  400f1b:	48 8d 3d 60 20 00 00 	lea    0x2060(%rip),%rdi        # 402f82 <_IO_stdin_used+0x192>
  400f22:	e8 09 fd ff ff       	callq  400c30 <puts@plt>
  400f27:	bf 00 00 00 00       	mov    $0x0,%edi
  400f2c:	e8 7f fe ff ff       	callq  400db0 <exit@plt>
  400f31:	48 8d 3d 66 20 00 00 	lea    0x2066(%rip),%rdi        # 402f9e <_IO_stdin_used+0x1ae>
  400f38:	b8 00 00 00 00       	mov    $0x0,%eax
  400f3d:	e8 1e fd ff ff       	callq  400c60 <printf@plt>
  400f42:	48 8d 3d 37 1f 00 00 	lea    0x1f37(%rip),%rdi        # 402e80 <_IO_stdin_used+0x90>
  400f49:	e8 e2 fc ff ff       	callq  400c30 <puts@plt>
  400f4e:	48 8d 3d 53 1f 00 00 	lea    0x1f53(%rip),%rdi        # 402ea8 <_IO_stdin_used+0xb8>
  400f55:	e8 d6 fc ff ff       	callq  400c30 <puts@plt>
  400f5a:	48 8d 3d 5b 20 00 00 	lea    0x205b(%rip),%rdi        # 402fbc <_IO_stdin_used+0x1cc>
  400f61:	e8 ca fc ff ff       	callq  400c30 <puts@plt>
  400f66:	eb bf                	jmp    400f27 <usage+0x51>

0000000000400f68 <initialize_target>:
  400f68:	55                   	push   %rbp
  400f69:	53                   	push   %rbx
  400f6a:	48 81 ec 08 21 00 00 	sub    $0x2108,%rsp
  400f71:	89 f5                	mov    %esi,%ebp
  400f73:	89 3d 7f 45 20 00    	mov    %edi,0x20457f(%rip)        # 6054f8 <check_level>
  400f79:	8b 3d b1 41 20 00    	mov    0x2041b1(%rip),%edi        # 605130 <target_id>
  400f7f:	e8 c0 1d 00 00       	callq  402d44 <gencookie>
  400f84:	89 05 7a 45 20 00    	mov    %eax,0x20457a(%rip)        # 605504 <cookie>
  400f8a:	89 c7                	mov    %eax,%edi
  400f8c:	e8 b3 1d 00 00       	callq  402d44 <gencookie>
  400f91:	89 05 69 45 20 00    	mov    %eax,0x204569(%rip)        # 605500 <authkey>
  400f97:	8b 05 93 41 20 00    	mov    0x204193(%rip),%eax        # 605130 <target_id>
  400f9d:	8d 78 01             	lea    0x1(%rax),%edi
  400fa0:	e8 5b fc ff ff       	callq  400c00 <srandom@plt>
  400fa5:	e8 66 fd ff ff       	callq  400d10 <random@plt>
  400faa:	89 c7                	mov    %eax,%edi
  400fac:	e8 c3 02 00 00       	callq  401274 <scramble>
  400fb1:	89 c3                	mov    %eax,%ebx
  400fb3:	85 ed                	test   %ebp,%ebp
  400fb5:	75 3d                	jne    400ff4 <initialize_target+0x8c>
  400fb7:	b8 00 00 00 00       	mov    $0x0,%eax
  400fbc:	01 d8                	add    %ebx,%eax
  400fbe:	0f b7 c0             	movzwl %ax,%eax
  400fc1:	8d 04 c5 00 01 00 00 	lea    0x100(,%rax,8),%eax
  400fc8:	89 c0                	mov    %eax,%eax
  400fca:	48 89 05 af 44 20 00 	mov    %rax,0x2044af(%rip)        # 605480 <buf_offset>
  400fd1:	c6 05 50 51 20 00 72 	movb   $0x72,0x205150(%rip)        # 606128 <target_prefix>
  400fd8:	83 3d a9 44 20 00 00 	cmpl   $0x0,0x2044a9(%rip)        # 605488 <notify>
  400fdf:	74 09                	je     400fea <initialize_target+0x82>
  400fe1:	83 3d 20 45 20 00 00 	cmpl   $0x0,0x204520(%rip)        # 605508 <is_checker>
  400fe8:	74 22                	je     40100c <initialize_target+0xa4>
  400fea:	48 81 c4 08 21 00 00 	add    $0x2108,%rsp
  400ff1:	5b                   	pop    %rbx
  400ff2:	5d                   	pop    %rbp
  400ff3:	c3                   	retq   
  400ff4:	bf 00 00 00 00       	mov    $0x0,%edi
  400ff9:	e8 02 fd ff ff       	callq  400d00 <time@plt>
  400ffe:	89 c7                	mov    %eax,%edi
  401000:	e8 fb fb ff ff       	callq  400c00 <srandom@plt>
  401005:	e8 06 fd ff ff       	callq  400d10 <random@plt>
  40100a:	eb b0                	jmp    400fbc <initialize_target+0x54>
  40100c:	48 89 e7             	mov    %rsp,%rdi
  40100f:	be 00 01 00 00       	mov    $0x100,%esi
  401014:	e8 77 fd ff ff       	callq  400d90 <gethostname@plt>
  401019:	89 c3                	mov    %eax,%ebx
  40101b:	85 c0                	test   %eax,%eax
  40101d:	75 24                	jne    401043 <initialize_target+0xdb>
  40101f:	48 63 c3             	movslq %ebx,%rax
  401022:	48 8d 15 37 41 20 00 	lea    0x204137(%rip),%rdx        # 605160 <host_table>
  401029:	48 8b 3c c2          	mov    (%rdx,%rax,8),%rdi
  40102d:	48 85 ff             	test   %rdi,%rdi
  401030:	74 27                	je     401059 <initialize_target+0xf1>
  401032:	48 89 e6             	mov    %rsp,%rsi
  401035:	e8 a6 fb ff ff       	callq  400be0 <strcasecmp@plt>
  40103a:	85 c0                	test   %eax,%eax
  40103c:	74 1b                	je     401059 <initialize_target+0xf1>
  40103e:	83 c3 01             	add    $0x1,%ebx
  401041:	eb dc                	jmp    40101f <initialize_target+0xb7>
  401043:	48 8d 3d 8e 1e 00 00 	lea    0x1e8e(%rip),%rdi        # 402ed8 <_IO_stdin_used+0xe8>
  40104a:	e8 e1 fb ff ff       	callq  400c30 <puts@plt>
  40104f:	bf 08 00 00 00       	mov    $0x8,%edi
  401054:	e8 57 fd ff ff       	callq  400db0 <exit@plt>
  401059:	48 8d bc 24 00 01 00 	lea    0x100(%rsp),%rdi
  401060:	00 
  401061:	e8 63 1a 00 00       	callq  402ac9 <init_driver>
  401066:	85 c0                	test   %eax,%eax
  401068:	79 80                	jns    400fea <initialize_target+0x82>
  40106a:	48 8d b4 24 00 01 00 	lea    0x100(%rsp),%rsi
  401071:	00 
  401072:	48 8d 3d 97 1e 00 00 	lea    0x1e97(%rip),%rdi        # 402f10 <_IO_stdin_used+0x120>
  401079:	b8 00 00 00 00       	mov    $0x0,%eax
  40107e:	e8 dd fb ff ff       	callq  400c60 <printf@plt>
  401083:	bf 08 00 00 00       	mov    $0x8,%edi
  401088:	e8 23 fd ff ff       	callq  400db0 <exit@plt>

000000000040108d <main>:
  40108d:	41 56                	push   %r14
  40108f:	41 55                	push   %r13
  401091:	41 54                	push   %r12
  401093:	55                   	push   %rbp
  401094:	53                   	push   %rbx
  401095:	41 89 fc             	mov    %edi,%r12d
  401098:	48 89 f3             	mov    %rsi,%rbx
  40109b:	48 c7 c6 6f 1e 40 00 	mov    $0x401e6f,%rsi
  4010a2:	bf 0b 00 00 00       	mov    $0xb,%edi
  4010a7:	e8 04 fc ff ff       	callq  400cb0 <signal@plt>
  4010ac:	48 c7 c6 1b 1e 40 00 	mov    $0x401e1b,%rsi
  4010b3:	bf 07 00 00 00       	mov    $0x7,%edi
  4010b8:	e8 f3 fb ff ff       	callq  400cb0 <signal@plt>
  4010bd:	48 c7 c6 c3 1e 40 00 	mov    $0x401ec3,%rsi
  4010c4:	bf 04 00 00 00       	mov    $0x4,%edi
  4010c9:	e8 e2 fb ff ff       	callq  400cb0 <signal@plt>
  4010ce:	83 3d 33 44 20 00 00 	cmpl   $0x0,0x204433(%rip)        # 605508 <is_checker>
  4010d5:	75 58                	jne    40112f <main+0xa2>
  4010d7:	48 8d 2d f7 1e 00 00 	lea    0x1ef7(%rip),%rbp        # 402fd5 <_IO_stdin_used+0x1e5>
  4010de:	48 8b 05 bb 43 20 00 	mov    0x2043bb(%rip),%rax        # 6054a0 <stdin@@GLIBC_2.2.5>
  4010e5:	48 89 05 04 44 20 00 	mov    %rax,0x204404(%rip)        # 6054f0 <infile>
  4010ec:	41 bd 00 00 00 00    	mov    $0x0,%r13d
  4010f2:	41 be 00 00 00 00    	mov    $0x0,%r14d
  4010f8:	48 89 ea             	mov    %rbp,%rdx
  4010fb:	48 89 de             	mov    %rbx,%rsi
  4010fe:	44 89 e7             	mov    %r12d,%edi
  401101:	e8 6a fc ff ff       	callq  400d70 <getopt@plt>
  401106:	3c ff                	cmp    $0xff,%al
  401108:	0f 84 f8 00 00 00    	je     401206 <main+0x179>
  40110e:	0f be f0             	movsbl %al,%esi
  401111:	83 e8 61             	sub    $0x61,%eax
  401114:	3c 10                	cmp    $0x10,%al
  401116:	0f 87 d1 00 00 00    	ja     4011ed <main+0x160>
  40111c:	0f b6 c0             	movzbl %al,%eax
  40111f:	48 8d 15 fa 1e 00 00 	lea    0x1efa(%rip),%rdx        # 403020 <_IO_stdin_used+0x230>
  401126:	48 63 04 82          	movslq (%rdx,%rax,4),%rax
  40112a:	48 01 d0             	add    %rdx,%rax
  40112d:	ff e0                	jmpq   *%rax
  40112f:	48 c7 c6 17 1f 40 00 	mov    $0x401f17,%rsi
  401136:	bf 0e 00 00 00       	mov    $0xe,%edi
  40113b:	e8 70 fb ff ff       	callq  400cb0 <signal@plt>
  401140:	bf 05 00 00 00       	mov    $0x5,%edi
  401145:	e8 36 fb ff ff       	callq  400c80 <alarm@plt>
  40114a:	48 8d 2d 89 1e 00 00 	lea    0x1e89(%rip),%rbp        # 402fda <_IO_stdin_used+0x1ea>
  401151:	eb 8b                	jmp    4010de <main+0x51>
  401153:	48 8b 3b             	mov    (%rbx),%rdi
  401156:	e8 7b fd ff ff       	callq  400ed6 <usage>
  40115b:	48 8d 35 03 21 00 00 	lea    0x2103(%rip),%rsi        # 403265 <_IO_stdin_used+0x475>
  401162:	48 8b 3d 3f 43 20 00 	mov    0x20433f(%rip),%rdi        # 6054a8 <optarg@@GLIBC_2.2.5>
  401169:	e8 f2 fb ff ff       	callq  400d60 <fopen@plt>
  40116e:	48 89 05 7b 43 20 00 	mov    %rax,0x20437b(%rip)        # 6054f0 <infile>
  401175:	48 85 c0             	test   %rax,%rax
  401178:	0f 85 7a ff ff ff    	jne    4010f8 <main+0x6b>
  40117e:	48 8b 15 23 43 20 00 	mov    0x204323(%rip),%rdx        # 6054a8 <optarg@@GLIBC_2.2.5>
  401185:	48 8d 35 56 1e 00 00 	lea    0x1e56(%rip),%rsi        # 402fe2 <_IO_stdin_used+0x1f2>
  40118c:	48 8b 3d 2d 43 20 00 	mov    0x20432d(%rip),%rdi        # 6054c0 <stderr@@GLIBC_2.2.5>
  401193:	e8 38 fb ff ff       	callq  400cd0 <fprintf@plt>
  401198:	b8 01 00 00 00       	mov    $0x1,%eax
  40119d:	e9 c9 00 00 00       	jmpq   40126b <main+0x1de>
  4011a2:	ba 10 00 00 00       	mov    $0x10,%edx
  4011a7:	be 00 00 00 00       	mov    $0x0,%esi
  4011ac:	48 8b 3d f5 42 20 00 	mov    0x2042f5(%rip),%rdi        # 6054a8 <optarg@@GLIBC_2.2.5>
  4011b3:	e8 c8 fb ff ff       	callq  400d80 <strtoul@plt>
  4011b8:	41 89 c6             	mov    %eax,%r14d
  4011bb:	e9 38 ff ff ff       	jmpq   4010f8 <main+0x6b>
  4011c0:	ba 0a 00 00 00       	mov    $0xa,%edx
  4011c5:	be 00 00 00 00       	mov    $0x0,%esi
  4011ca:	48 8b 3d d7 42 20 00 	mov    0x2042d7(%rip),%rdi        # 6054a8 <optarg@@GLIBC_2.2.5>
  4011d1:	e8 0a fb ff ff       	callq  400ce0 <strtol@plt>
  4011d6:	41 89 c5             	mov    %eax,%r13d
  4011d9:	e9 1a ff ff ff       	jmpq   4010f8 <main+0x6b>
  4011de:	c7 05 a0 42 20 00 00 	movl   $0x0,0x2042a0(%rip)        # 605488 <notify>
  4011e5:	00 00 00 
  4011e8:	e9 0b ff ff ff       	jmpq   4010f8 <main+0x6b>
  4011ed:	48 8d 3d 0b 1e 00 00 	lea    0x1e0b(%rip),%rdi        # 402fff <_IO_stdin_used+0x20f>
  4011f4:	b8 00 00 00 00       	mov    $0x0,%eax
  4011f9:	e8 62 fa ff ff       	callq  400c60 <printf@plt>
  4011fe:	48 8b 3b             	mov    (%rbx),%rdi
  401201:	e8 d0 fc ff ff       	callq  400ed6 <usage>
  401206:	be 01 00 00 00       	mov    $0x1,%esi
  40120b:	44 89 ef             	mov    %r13d,%edi
  40120e:	e8 55 fd ff ff       	callq  400f68 <initialize_target>
  401213:	83 3d ee 42 20 00 00 	cmpl   $0x0,0x2042ee(%rip)        # 605508 <is_checker>
  40121a:	74 27                	je     401243 <main+0x1b6>
  40121c:	44 3b 35 dd 42 20 00 	cmp    0x2042dd(%rip),%r14d        # 605500 <authkey>
  401223:	74 1e                	je     401243 <main+0x1b6>
  401225:	44 89 f6             	mov    %r14d,%esi
  401228:	48 8d 3d 09 1d 00 00 	lea    0x1d09(%rip),%rdi        # 402f38 <_IO_stdin_used+0x148>
  40122f:	b8 00 00 00 00       	mov    $0x0,%eax
  401234:	e8 27 fa ff ff       	callq  400c60 <printf@plt>
  401239:	b8 00 00 00 00       	mov    $0x0,%eax
  40123e:	e8 a8 08 00 00       	callq  401aeb <check_fail>
  401243:	8b 35 bb 42 20 00    	mov    0x2042bb(%rip),%esi        # 605504 <cookie>
  401249:	48 8d 3d c2 1d 00 00 	lea    0x1dc2(%rip),%rdi        # 403012 <_IO_stdin_used+0x222>
  401250:	b8 00 00 00 00       	mov    $0x0,%eax
  401255:	e8 06 fa ff ff       	callq  400c60 <printf@plt>
  40125a:	48 8b 3d 1f 42 20 00 	mov    0x20421f(%rip),%rdi        # 605480 <buf_offset>
  401261:	e8 03 0d 00 00       	callq  401f69 <launch>
  401266:	b8 00 00 00 00       	mov    $0x0,%eax
  40126b:	5b                   	pop    %rbx
  40126c:	5d                   	pop    %rbp
  40126d:	41 5c                	pop    %r12
  40126f:	41 5d                	pop    %r13
  401271:	41 5e                	pop    %r14
  401273:	c3                   	retq   

0000000000401274 <scramble>:
  401274:	b8 00 00 00 00       	mov    $0x0,%eax
  401279:	eb 11                	jmp    40128c <scramble+0x18>
  40127b:	69 d0 7a f2 00 00    	imul   $0xf27a,%eax,%edx
  401281:	01 fa                	add    %edi,%edx
  401283:	89 c1                	mov    %eax,%ecx
  401285:	89 54 8c d0          	mov    %edx,-0x30(%rsp,%rcx,4)
  401289:	83 c0 01             	add    $0x1,%eax
  40128c:	83 f8 09             	cmp    $0x9,%eax
  40128f:	76 ea                	jbe    40127b <scramble+0x7>
  401291:	8b 44 24 d8          	mov    -0x28(%rsp),%eax
  401295:	69 c0 c5 d2 00 00    	imul   $0xd2c5,%eax,%eax
  40129b:	89 44 24 d8          	mov    %eax,-0x28(%rsp)
  40129f:	8b 44 24 d0          	mov    -0x30(%rsp),%eax
  4012a3:	69 c0 ad 5a 00 00    	imul   $0x5aad,%eax,%eax
  4012a9:	89 44 24 d0          	mov    %eax,-0x30(%rsp)
  4012ad:	8b 44 24 d0          	mov    -0x30(%rsp),%eax
  4012b1:	69 c0 8c e8 00 00    	imul   $0xe88c,%eax,%eax
  4012b7:	89 44 24 d0          	mov    %eax,-0x30(%rsp)
  4012bb:	8b 44 24 d4          	mov    -0x2c(%rsp),%eax
  4012bf:	69 c0 5d b1 00 00    	imul   $0xb15d,%eax,%eax
  4012c5:	89 44 24 d4          	mov    %eax,-0x2c(%rsp)
  4012c9:	8b 44 24 d4          	mov    -0x2c(%rsp),%eax
  4012cd:	69 c0 dc 3a 00 00    	imul   $0x3adc,%eax,%eax
  4012d3:	89 44 24 d4          	mov    %eax,-0x2c(%rsp)
  4012d7:	8b 44 24 ec          	mov    -0x14(%rsp),%eax
  4012db:	69 c0 a9 59 00 00    	imul   $0x59a9,%eax,%eax
  4012e1:	89 44 24 ec          	mov    %eax,-0x14(%rsp)
  4012e5:	8b 44 24 e4          	mov    -0x1c(%rsp),%eax
  4012e9:	69 c0 50 33 00 00    	imul   $0x3350,%eax,%eax
  4012ef:	89 44 24 e4          	mov    %eax,-0x1c(%rsp)
  4012f3:	8b 44 24 dc          	mov    -0x24(%rsp),%eax
  4012f7:	69 c0 a8 24 00 00    	imul   $0x24a8,%eax,%eax
  4012fd:	89 44 24 dc          	mov    %eax,-0x24(%rsp)
  401301:	8b 44 24 e4          	mov    -0x1c(%rsp),%eax
  401305:	69 c0 c3 33 00 00    	imul   $0x33c3,%eax,%eax
  40130b:	89 44 24 e4          	mov    %eax,-0x1c(%rsp)
  40130f:	8b 44 24 dc          	mov    -0x24(%rsp),%eax
  401313:	69 c0 04 1a 00 00    	imul   $0x1a04,%eax,%eax
  401319:	89 44 24 dc          	mov    %eax,-0x24(%rsp)
  40131d:	8b 44 24 d8          	mov    -0x28(%rsp),%eax
  401321:	69 c0 dd cd 00 00    	imul   $0xcddd,%eax,%eax
  401327:	89 44 24 d8          	mov    %eax,-0x28(%rsp)
  40132b:	8b 44 24 f0          	mov    -0x10(%rsp),%eax
  40132f:	69 c0 e0 a7 00 00    	imul   $0xa7e0,%eax,%eax
  401335:	89 44 24 f0          	mov    %eax,-0x10(%rsp)
  401339:	8b 44 24 f0          	mov    -0x10(%rsp),%eax
  40133d:	69 c0 fa 89 00 00    	imul   $0x89fa,%eax,%eax
  401343:	89 44 24 f0          	mov    %eax,-0x10(%rsp)
  401347:	8b 44 24 f4          	mov    -0xc(%rsp),%eax
  40134b:	69 c0 10 b6 00 00    	imul   $0xb610,%eax,%eax
  401351:	89 44 24 f4          	mov    %eax,-0xc(%rsp)
  401355:	8b 44 24 f0          	mov    -0x10(%rsp),%eax
  401359:	69 c0 ba 4d 00 00    	imul   $0x4dba,%eax,%eax
  40135f:	89 44 24 f0          	mov    %eax,-0x10(%rsp)
  401363:	8b 44 24 e4          	mov    -0x1c(%rsp),%eax
  401367:	69 c0 01 d6 00 00    	imul   $0xd601,%eax,%eax
  40136d:	89 44 24 e4          	mov    %eax,-0x1c(%rsp)
  401371:	8b 44 24 f0          	mov    -0x10(%rsp),%eax
  401375:	69 c0 95 f8 00 00    	imul   $0xf895,%eax,%eax
  40137b:	89 44 24 f0          	mov    %eax,-0x10(%rsp)
  40137f:	8b 44 24 d4          	mov    -0x2c(%rsp),%eax
  401383:	69 c0 99 1b 00 00    	imul   $0x1b99,%eax,%eax
  401389:	89 44 24 d4          	mov    %eax,-0x2c(%rsp)
  40138d:	8b 44 24 f4          	mov    -0xc(%rsp),%eax
  401391:	69 c0 0a 91 00 00    	imul   $0x910a,%eax,%eax
  401397:	89 44 24 f4          	mov    %eax,-0xc(%rsp)
  40139b:	8b 44 24 d4          	mov    -0x2c(%rsp),%eax
  40139f:	69 c0 14 c5 00 00    	imul   $0xc514,%eax,%eax
  4013a5:	89 44 24 d4          	mov    %eax,-0x2c(%rsp)
  4013a9:	8b 44 24 ec          	mov    -0x14(%rsp),%eax
  4013ad:	69 c0 7a 84 00 00    	imul   $0x847a,%eax,%eax
  4013b3:	89 44 24 ec          	mov    %eax,-0x14(%rsp)
  4013b7:	8b 44 24 e0          	mov    -0x20(%rsp),%eax
  4013bb:	69 c0 0e 29 00 00    	imul   $0x290e,%eax,%eax
  4013c1:	89 44 24 e0          	mov    %eax,-0x20(%rsp)
  4013c5:	8b 44 24 e0          	mov    -0x20(%rsp),%eax
  4013c9:	69 c0 fa 8e 00 00    	imul   $0x8efa,%eax,%eax
  4013cf:	89 44 24 e0          	mov    %eax,-0x20(%rsp)
  4013d3:	8b 44 24 d4          	mov    -0x2c(%rsp),%eax
  4013d7:	69 c0 e7 9e 00 00    	imul   $0x9ee7,%eax,%eax
  4013dd:	89 44 24 d4          	mov    %eax,-0x2c(%rsp)
  4013e1:	8b 44 24 dc          	mov    -0x24(%rsp),%eax
  4013e5:	69 c0 b3 9c 00 00    	imul   $0x9cb3,%eax,%eax
  4013eb:	89 44 24 dc          	mov    %eax,-0x24(%rsp)
  4013ef:	8b 44 24 d0          	mov    -0x30(%rsp),%eax
  4013f3:	69 c0 72 04 00 00    	imul   $0x472,%eax,%eax
  4013f9:	89 44 24 d0          	mov    %eax,-0x30(%rsp)
  4013fd:	8b 44 24 e8          	mov    -0x18(%rsp),%eax
  401401:	69 c0 5d ad 00 00    	imul   $0xad5d,%eax,%eax
  401407:	89 44 24 e8          	mov    %eax,-0x18(%rsp)
  40140b:	8b 44 24 f0          	mov    -0x10(%rsp),%eax
  40140f:	69 c0 89 ab 00 00    	imul   $0xab89,%eax,%eax
  401415:	89 44 24 f0          	mov    %eax,-0x10(%rsp)
  401419:	8b 44 24 f4          	mov    -0xc(%rsp),%eax
  40141d:	69 c0 76 1c 00 00    	imul   $0x1c76,%eax,%eax
  401423:	89 44 24 f4          	mov    %eax,-0xc(%rsp)
  401427:	8b 44 24 d8          	mov    -0x28(%rsp),%eax
  40142b:	69 c0 df 1a 00 00    	imul   $0x1adf,%eax,%eax
  401431:	89 44 24 d8          	mov    %eax,-0x28(%rsp)
  401435:	8b 44 24 d8          	mov    -0x28(%rsp),%eax
  401439:	69 c0 5b d3 00 00    	imul   $0xd35b,%eax,%eax
  40143f:	89 44 24 d8          	mov    %eax,-0x28(%rsp)
  401443:	8b 44 24 d0          	mov    -0x30(%rsp),%eax
  401447:	69 c0 af 8a 00 00    	imul   $0x8aaf,%eax,%eax
  40144d:	89 44 24 d0          	mov    %eax,-0x30(%rsp)
  401451:	8b 44 24 e8          	mov    -0x18(%rsp),%eax
  401455:	69 c0 8e 21 00 00    	imul   $0x218e,%eax,%eax
  40145b:	89 44 24 e8          	mov    %eax,-0x18(%rsp)
  40145f:	8b 44 24 d8          	mov    -0x28(%rsp),%eax
  401463:	69 c0 11 ad 00 00    	imul   $0xad11,%eax,%eax
  401469:	89 44 24 d8          	mov    %eax,-0x28(%rsp)
  40146d:	8b 44 24 e4          	mov    -0x1c(%rsp),%eax
  401471:	69 c0 3f 73 00 00    	imul   $0x733f,%eax,%eax
  401477:	89 44 24 e4          	mov    %eax,-0x1c(%rsp)
  40147b:	8b 44 24 ec          	mov    -0x14(%rsp),%eax
  40147f:	69 c0 7f 7e 00 00    	imul   $0x7e7f,%eax,%eax
  401485:	89 44 24 ec          	mov    %eax,-0x14(%rsp)
  401489:	8b 44 24 e4          	mov    -0x1c(%rsp),%eax
  40148d:	69 c0 e2 90 00 00    	imul   $0x90e2,%eax,%eax
  401493:	89 44 24 e4          	mov    %eax,-0x1c(%rsp)
  401497:	8b 44 24 e8          	mov    -0x18(%rsp),%eax
  40149b:	69 c0 83 af 00 00    	imul   $0xaf83,%eax,%eax
  4014a1:	89 44 24 e8          	mov    %eax,-0x18(%rsp)
  4014a5:	8b 44 24 d8          	mov    -0x28(%rsp),%eax
  4014a9:	69 c0 43 f5 00 00    	imul   $0xf543,%eax,%eax
  4014af:	89 44 24 d8          	mov    %eax,-0x28(%rsp)
  4014b3:	8b 44 24 dc          	mov    -0x24(%rsp),%eax
  4014b7:	69 c0 99 e2 00 00    	imul   $0xe299,%eax,%eax
  4014bd:	89 44 24 dc          	mov    %eax,-0x24(%rsp)
  4014c1:	8b 44 24 dc          	mov    -0x24(%rsp),%eax
  4014c5:	69 c0 55 07 00 00    	imul   $0x755,%eax,%eax
  4014cb:	89 44 24 dc          	mov    %eax,-0x24(%rsp)
  4014cf:	8b 44 24 dc          	mov    -0x24(%rsp),%eax
  4014d3:	69 c0 87 fc 00 00    	imul   $0xfc87,%eax,%eax
  4014d9:	89 44 24 dc          	mov    %eax,-0x24(%rsp)
  4014dd:	8b 44 24 e8          	mov    -0x18(%rsp),%eax
  4014e1:	69 c0 5d 93 00 00    	imul   $0x935d,%eax,%eax
  4014e7:	89 44 24 e8          	mov    %eax,-0x18(%rsp)
  4014eb:	8b 44 24 ec          	mov    -0x14(%rsp),%eax
  4014ef:	69 c0 0b ec 00 00    	imul   $0xec0b,%eax,%eax
  4014f5:	89 44 24 ec          	mov    %eax,-0x14(%rsp)
  4014f9:	8b 44 24 d0          	mov    -0x30(%rsp),%eax
  4014fd:	69 c0 a9 09 00 00    	imul   $0x9a9,%eax,%eax
  401503:	89 44 24 d0          	mov    %eax,-0x30(%rsp)
  401507:	8b 44 24 ec          	mov    -0x14(%rsp),%eax
  40150b:	69 c0 03 1a 00 00    	imul   $0x1a03,%eax,%eax
  401511:	89 44 24 ec          	mov    %eax,-0x14(%rsp)
  401515:	8b 44 24 f0          	mov    -0x10(%rsp),%eax
  401519:	69 c0 ca f7 00 00    	imul   $0xf7ca,%eax,%eax
  40151f:	89 44 24 f0          	mov    %eax,-0x10(%rsp)
  401523:	8b 44 24 e8          	mov    -0x18(%rsp),%eax
  401527:	69 c0 f5 a8 00 00    	imul   $0xa8f5,%eax,%eax
  40152d:	89 44 24 e8          	mov    %eax,-0x18(%rsp)
  401531:	8b 44 24 dc          	mov    -0x24(%rsp),%eax
  401535:	69 c0 fb 4a 00 00    	imul   $0x4afb,%eax,%eax
  40153b:	89 44 24 dc          	mov    %eax,-0x24(%rsp)
  40153f:	8b 44 24 d0          	mov    -0x30(%rsp),%eax
  401543:	69 c0 f0 cb 00 00    	imul   $0xcbf0,%eax,%eax
  401549:	89 44 24 d0          	mov    %eax,-0x30(%rsp)
  40154d:	8b 44 24 e8          	mov    -0x18(%rsp),%eax
  401551:	69 c0 2c c8 00 00    	imul   $0xc82c,%eax,%eax
  401557:	89 44 24 e8          	mov    %eax,-0x18(%rsp)
  40155b:	8b 44 24 dc          	mov    -0x24(%rsp),%eax
  40155f:	69 c0 f4 b5 00 00    	imul   $0xb5f4,%eax,%eax
  401565:	89 44 24 dc          	mov    %eax,-0x24(%rsp)
  401569:	8b 44 24 dc          	mov    -0x24(%rsp),%eax
  40156d:	69 c0 fd f1 00 00    	imul   $0xf1fd,%eax,%eax
  401573:	89 44 24 dc          	mov    %eax,-0x24(%rsp)
  401577:	8b 44 24 dc          	mov    -0x24(%rsp),%eax
  40157b:	69 c0 eb 78 00 00    	imul   $0x78eb,%eax,%eax
  401581:	89 44 24 dc          	mov    %eax,-0x24(%rsp)
  401585:	8b 44 24 ec          	mov    -0x14(%rsp),%eax
  401589:	69 c0 e2 b3 00 00    	imul   $0xb3e2,%eax,%eax
  40158f:	89 44 24 ec          	mov    %eax,-0x14(%rsp)
  401593:	8b 44 24 dc          	mov    -0x24(%rsp),%eax
  401597:	69 c0 38 79 00 00    	imul   $0x7938,%eax,%eax
  40159d:	89 44 24 dc          	mov    %eax,-0x24(%rsp)
  4015a1:	8b 44 24 d4          	mov    -0x2c(%rsp),%eax
  4015a5:	69 c0 90 42 00 00    	imul   $0x4290,%eax,%eax
  4015ab:	89 44 24 d4          	mov    %eax,-0x2c(%rsp)
  4015af:	8b 44 24 d8          	mov    -0x28(%rsp),%eax
  4015b3:	69 c0 ea 6f 00 00    	imul   $0x6fea,%eax,%eax
  4015b9:	89 44 24 d8          	mov    %eax,-0x28(%rsp)
  4015bd:	8b 44 24 d4          	mov    -0x2c(%rsp),%eax
  4015c1:	69 c0 d0 1d 00 00    	imul   $0x1dd0,%eax,%eax
  4015c7:	89 44 24 d4          	mov    %eax,-0x2c(%rsp)
  4015cb:	8b 44 24 f4          	mov    -0xc(%rsp),%eax
  4015cf:	69 c0 c1 85 00 00    	imul   $0x85c1,%eax,%eax
  4015d5:	89 44 24 f4          	mov    %eax,-0xc(%rsp)
  4015d9:	8b 44 24 d4          	mov    -0x2c(%rsp),%eax
  4015dd:	69 c0 df 62 00 00    	imul   $0x62df,%eax,%eax
  4015e3:	89 44 24 d4          	mov    %eax,-0x2c(%rsp)
  4015e7:	8b 44 24 ec          	mov    -0x14(%rsp),%eax
  4015eb:	69 c0 7e 04 00 00    	imul   $0x47e,%eax,%eax
  4015f1:	89 44 24 ec          	mov    %eax,-0x14(%rsp)
  4015f5:	8b 44 24 f0          	mov    -0x10(%rsp),%eax
  4015f9:	69 c0 77 44 00 00    	imul   $0x4477,%eax,%eax
  4015ff:	89 44 24 f0          	mov    %eax,-0x10(%rsp)
  401603:	8b 44 24 f0          	mov    -0x10(%rsp),%eax
  401607:	69 c0 01 74 00 00    	imul   $0x7401,%eax,%eax
  40160d:	89 44 24 f0          	mov    %eax,-0x10(%rsp)
  401611:	8b 44 24 f0          	mov    -0x10(%rsp),%eax
  401615:	69 c0 7b 03 00 00    	imul   $0x37b,%eax,%eax
  40161b:	89 44 24 f0          	mov    %eax,-0x10(%rsp)
  40161f:	8b 44 24 d4          	mov    -0x2c(%rsp),%eax
  401623:	69 c0 ad 4d 00 00    	imul   $0x4dad,%eax,%eax
  401629:	89 44 24 d4          	mov    %eax,-0x2c(%rsp)
  40162d:	8b 44 24 d4          	mov    -0x2c(%rsp),%eax
  401631:	69 c0 62 8a 00 00    	imul   $0x8a62,%eax,%eax
  401637:	89 44 24 d4          	mov    %eax,-0x2c(%rsp)
  40163b:	8b 44 24 f4          	mov    -0xc(%rsp),%eax
  40163f:	69 c0 b6 24 00 00    	imul   $0x24b6,%eax,%eax
  401645:	89 44 24 f4          	mov    %eax,-0xc(%rsp)
  401649:	8b 44 24 e8          	mov    -0x18(%rsp),%eax
  40164d:	69 c0 18 69 00 00    	imul   $0x6918,%eax,%eax
  401653:	89 44 24 e8          	mov    %eax,-0x18(%rsp)
  401657:	8b 44 24 d8          	mov    -0x28(%rsp),%eax
  40165b:	69 c0 a0 63 00 00    	imul   $0x63a0,%eax,%eax
  401661:	89 44 24 d8          	mov    %eax,-0x28(%rsp)
  401665:	8b 44 24 d0          	mov    -0x30(%rsp),%eax
  401669:	69 c0 27 f9 00 00    	imul   $0xf927,%eax,%eax
  40166f:	89 44 24 d0          	mov    %eax,-0x30(%rsp)
  401673:	8b 44 24 e4          	mov    -0x1c(%rsp),%eax
  401677:	69 c0 32 d8 00 00    	imul   $0xd832,%eax,%eax
  40167d:	89 44 24 e4          	mov    %eax,-0x1c(%rsp)
  401681:	8b 44 24 e8          	mov    -0x18(%rsp),%eax
  401685:	69 c0 98 52 00 00    	imul   $0x5298,%eax,%eax
  40168b:	89 44 24 e8          	mov    %eax,-0x18(%rsp)
  40168f:	8b 44 24 e8          	mov    -0x18(%rsp),%eax
  401693:	69 c0 a5 11 00 00    	imul   $0x11a5,%eax,%eax
  401699:	89 44 24 e8          	mov    %eax,-0x18(%rsp)
  40169d:	8b 44 24 d4          	mov    -0x2c(%rsp),%eax
  4016a1:	69 c0 12 a4 00 00    	imul   $0xa412,%eax,%eax
  4016a7:	89 44 24 d4          	mov    %eax,-0x2c(%rsp)
  4016ab:	8b 44 24 d4          	mov    -0x2c(%rsp),%eax
  4016af:	69 c0 e1 97 00 00    	imul   $0x97e1,%eax,%eax
  4016b5:	89 44 24 d4          	mov    %eax,-0x2c(%rsp)
  4016b9:	8b 44 24 e8          	mov    -0x18(%rsp),%eax
  4016bd:	69 c0 2c 37 00 00    	imul   $0x372c,%eax,%eax
  4016c3:	89 44 24 e8          	mov    %eax,-0x18(%rsp)
  4016c7:	8b 44 24 e4          	mov    -0x1c(%rsp),%eax
  4016cb:	69 c0 9b 61 00 00    	imul   $0x619b,%eax,%eax
  4016d1:	89 44 24 e4          	mov    %eax,-0x1c(%rsp)
  4016d5:	8b 44 24 e0          	mov    -0x20(%rsp),%eax
  4016d9:	69 c0 d4 49 00 00    	imul   $0x49d4,%eax,%eax
  4016df:	89 44 24 e0          	mov    %eax,-0x20(%rsp)
  4016e3:	8b 44 24 f4          	mov    -0xc(%rsp),%eax
  4016e7:	69 c0 16 0b 00 00    	imul   $0xb16,%eax,%eax
  4016ed:	89 44 24 f4          	mov    %eax,-0xc(%rsp)
  4016f1:	8b 44 24 e4          	mov    -0x1c(%rsp),%eax
  4016f5:	69 c0 8e 15 00 00    	imul   $0x158e,%eax,%eax
  4016fb:	89 44 24 e4          	mov    %eax,-0x1c(%rsp)
  4016ff:	8b 44 24 d0          	mov    -0x30(%rsp),%eax
  401703:	69 c0 f6 18 00 00    	imul   $0x18f6,%eax,%eax
  401709:	89 44 24 d0          	mov    %eax,-0x30(%rsp)
  40170d:	8b 44 24 f4          	mov    -0xc(%rsp),%eax
  401711:	69 c0 64 5c 00 00    	imul   $0x5c64,%eax,%eax
  401717:	89 44 24 f4          	mov    %eax,-0xc(%rsp)
  40171b:	8b 44 24 e0          	mov    -0x20(%rsp),%eax
  40171f:	69 c0 50 1c 00 00    	imul   $0x1c50,%eax,%eax
  401725:	89 44 24 e0          	mov    %eax,-0x20(%rsp)
  401729:	8b 44 24 d8          	mov    -0x28(%rsp),%eax
  40172d:	69 c0 4f db 00 00    	imul   $0xdb4f,%eax,%eax
  401733:	89 44 24 d8          	mov    %eax,-0x28(%rsp)
  401737:	8b 44 24 f0          	mov    -0x10(%rsp),%eax
  40173b:	69 c0 77 e2 00 00    	imul   $0xe277,%eax,%eax
  401741:	89 44 24 f0          	mov    %eax,-0x10(%rsp)
  401745:	8b 44 24 e4          	mov    -0x1c(%rsp),%eax
  401749:	69 c0 c9 5c 00 00    	imul   $0x5cc9,%eax,%eax
  40174f:	89 44 24 e4          	mov    %eax,-0x1c(%rsp)
  401753:	8b 44 24 d4          	mov    -0x2c(%rsp),%eax
  401757:	69 c0 2d 10 00 00    	imul   $0x102d,%eax,%eax
  40175d:	89 44 24 d4          	mov    %eax,-0x2c(%rsp)
  401761:	8b 44 24 e4          	mov    -0x1c(%rsp),%eax
  401765:	69 c0 c5 02 00 00    	imul   $0x2c5,%eax,%eax
  40176b:	89 44 24 e4          	mov    %eax,-0x1c(%rsp)
  40176f:	8b 44 24 f4          	mov    -0xc(%rsp),%eax
  401773:	69 c0 c9 1f 00 00    	imul   $0x1fc9,%eax,%eax
  401779:	89 44 24 f4          	mov    %eax,-0xc(%rsp)
  40177d:	8b 44 24 e0          	mov    -0x20(%rsp),%eax
  401781:	69 c0 3a b9 00 00    	imul   $0xb93a,%eax,%eax
  401787:	89 44 24 e0          	mov    %eax,-0x20(%rsp)
  40178b:	ba 00 00 00 00       	mov    $0x0,%edx
  401790:	b8 00 00 00 00       	mov    $0x0,%eax
  401795:	eb 0b                	jmp    4017a2 <scramble+0x52e>
  401797:	89 d1                	mov    %edx,%ecx
  401799:	8b 4c 8c d0          	mov    -0x30(%rsp,%rcx,4),%ecx
  40179d:	01 c8                	add    %ecx,%eax
  40179f:	83 c2 01             	add    $0x1,%edx
  4017a2:	83 fa 09             	cmp    $0x9,%edx
  4017a5:	76 f0                	jbe    401797 <scramble+0x523>
  4017a7:	f3 c3                	repz retq 

00000000004017a9 <getbuf>:
  4017a9:	48 83 ec 28          	sub    $0x28,%rsp
  4017ad:	48 89 e7             	mov    %rsp,%rdi
  4017b0:	e8 69 03 00 00       	callq  401b1e <Gets>
  4017b5:	b8 01 00 00 00       	mov    $0x1,%eax
  4017ba:	48 83 c4 28          	add    $0x28,%rsp
  4017be:	c3                   	retq   

00000000004017bf <touch1>:
  4017bf:	48 83 ec 08          	sub    $0x8,%rsp
  4017c3:	c7 05 2f 3d 20 00 01 	movl   $0x1,0x203d2f(%rip)        # 6054fc <vlevel>
  4017ca:	00 00 00 
  4017cd:	48 8d 3d ea 18 00 00 	lea    0x18ea(%rip),%rdi        # 4030be <_IO_stdin_used+0x2ce>
  4017d4:	e8 57 f4 ff ff       	callq  400c30 <puts@plt>
  4017d9:	bf 01 00 00 00       	mov    $0x1,%edi
  4017de:	e8 52 05 00 00       	callq  401d35 <validate>
  4017e3:	bf 00 00 00 00       	mov    $0x0,%edi
  4017e8:	e8 c3 f5 ff ff       	callq  400db0 <exit@plt>

00000000004017ed <touch2>:
  4017ed:	48 83 ec 08          	sub    $0x8,%rsp
  4017f1:	89 fe                	mov    %edi,%esi
  4017f3:	c7 05 ff 3c 20 00 02 	movl   $0x2,0x203cff(%rip)        # 6054fc <vlevel>
  4017fa:	00 00 00 
  4017fd:	39 3d 01 3d 20 00    	cmp    %edi,0x203d01(%rip)        # 605504 <cookie>
  401803:	74 25                	je     40182a <touch2+0x3d>
  401805:	48 8d 3d fc 18 00 00 	lea    0x18fc(%rip),%rdi        # 403108 <_IO_stdin_used+0x318>
  40180c:	b8 00 00 00 00       	mov    $0x0,%eax
  401811:	e8 4a f4 ff ff       	callq  400c60 <printf@plt>
  401816:	bf 02 00 00 00       	mov    $0x2,%edi
  40181b:	e8 d3 05 00 00       	callq  401df3 <fail>
  401820:	bf 00 00 00 00       	mov    $0x0,%edi
  401825:	e8 86 f5 ff ff       	callq  400db0 <exit@plt>
  40182a:	48 8d 3d af 18 00 00 	lea    0x18af(%rip),%rdi        # 4030e0 <_IO_stdin_used+0x2f0>
  401831:	b8 00 00 00 00       	mov    $0x0,%eax
  401836:	e8 25 f4 ff ff       	callq  400c60 <printf@plt>
  40183b:	bf 02 00 00 00       	mov    $0x2,%edi
  401840:	e8 f0 04 00 00       	callq  401d35 <validate>
  401845:	eb d9                	jmp    401820 <touch2+0x33>

0000000000401847 <hexmatch>:
  401847:	41 54                	push   %r12
  401849:	55                   	push   %rbp
  40184a:	53                   	push   %rbx
  40184b:	48 83 ec 70          	sub    $0x70,%rsp
  40184f:	89 fd                	mov    %edi,%ebp
  401851:	48 89 f3             	mov    %rsi,%rbx
  401854:	e8 b7 f4 ff ff       	callq  400d10 <random@plt>
  401859:	48 89 c1             	mov    %rax,%rcx
  40185c:	48 ba 0b d7 a3 70 3d 	movabs $0xa3d70a3d70a3d70b,%rdx
  401863:	0a d7 a3 
  401866:	48 f7 ea             	imul   %rdx
  401869:	48 01 ca             	add    %rcx,%rdx
  40186c:	48 c1 fa 06          	sar    $0x6,%rdx
  401870:	48 89 c8             	mov    %rcx,%rax
  401873:	48 c1 f8 3f          	sar    $0x3f,%rax
  401877:	48 29 c2             	sub    %rax,%rdx
  40187a:	48 8d 04 92          	lea    (%rdx,%rdx,4),%rax
  40187e:	48 8d 14 80          	lea    (%rax,%rax,4),%rdx
  401882:	48 8d 04 95 00 00 00 	lea    0x0(,%rdx,4),%rax
  401889:	00 
  40188a:	48 29 c1             	sub    %rax,%rcx
  40188d:	4c 8d 24 0c          	lea    (%rsp,%rcx,1),%r12
  401891:	89 ea                	mov    %ebp,%edx
  401893:	48 8d 35 41 18 00 00 	lea    0x1841(%rip),%rsi        # 4030db <_IO_stdin_used+0x2eb>
  40189a:	4c 89 e7             	mov    %r12,%rdi
  40189d:	b8 00 00 00 00       	mov    $0x0,%eax
  4018a2:	e8 f9 f4 ff ff       	callq  400da0 <sprintf@plt>
  4018a7:	ba 09 00 00 00       	mov    $0x9,%edx
  4018ac:	4c 89 e6             	mov    %r12,%rsi
  4018af:	48 89 df             	mov    %rbx,%rdi
  4018b2:	e8 59 f3 ff ff       	callq  400c10 <strncmp@plt>
  4018b7:	85 c0                	test   %eax,%eax
  4018b9:	0f 94 c0             	sete   %al
  4018bc:	0f b6 c0             	movzbl %al,%eax
  4018bf:	48 83 c4 70          	add    $0x70,%rsp
  4018c3:	5b                   	pop    %rbx
  4018c4:	5d                   	pop    %rbp
  4018c5:	41 5c                	pop    %r12
  4018c7:	c3                   	retq   

00000000004018c8 <touch3>:
  4018c8:	53                   	push   %rbx
  4018c9:	48 89 fb             	mov    %rdi,%rbx
  4018cc:	c7 05 26 3c 20 00 03 	movl   $0x3,0x203c26(%rip)        # 6054fc <vlevel>
  4018d3:	00 00 00 
  4018d6:	48 89 fe             	mov    %rdi,%rsi
  4018d9:	8b 3d 25 3c 20 00    	mov    0x203c25(%rip),%edi        # 605504 <cookie>
  4018df:	e8 63 ff ff ff       	callq  401847 <hexmatch>
  4018e4:	85 c0                	test   %eax,%eax
  4018e6:	74 28                	je     401910 <touch3+0x48>
  4018e8:	48 89 de             	mov    %rbx,%rsi
  4018eb:	48 8d 3d 3e 18 00 00 	lea    0x183e(%rip),%rdi        # 403130 <_IO_stdin_used+0x340>
  4018f2:	b8 00 00 00 00       	mov    $0x0,%eax
  4018f7:	e8 64 f3 ff ff       	callq  400c60 <printf@plt>
  4018fc:	bf 03 00 00 00       	mov    $0x3,%edi
  401901:	e8 2f 04 00 00       	callq  401d35 <validate>
  401906:	bf 00 00 00 00       	mov    $0x0,%edi
  40190b:	e8 a0 f4 ff ff       	callq  400db0 <exit@plt>
  401910:	48 89 de             	mov    %rbx,%rsi
  401913:	48 8d 3d 3e 18 00 00 	lea    0x183e(%rip),%rdi        # 403158 <_IO_stdin_used+0x368>
  40191a:	b8 00 00 00 00       	mov    $0x0,%eax
  40191f:	e8 3c f3 ff ff       	callq  400c60 <printf@plt>
  401924:	bf 03 00 00 00       	mov    $0x3,%edi
  401929:	e8 c5 04 00 00       	callq  401df3 <fail>
  40192e:	eb d6                	jmp    401906 <touch3+0x3e>

0000000000401930 <test>:
  401930:	48 83 ec 08          	sub    $0x8,%rsp
  401934:	b8 00 00 00 00       	mov    $0x0,%eax
  401939:	e8 6b fe ff ff       	callq  4017a9 <getbuf>
  40193e:	89 c6                	mov    %eax,%esi
  401940:	48 8d 3d 39 18 00 00 	lea    0x1839(%rip),%rdi        # 403180 <_IO_stdin_used+0x390>
  401947:	b8 00 00 00 00       	mov    $0x0,%eax
  40194c:	e8 0f f3 ff ff       	callq  400c60 <printf@plt>
  401951:	48 83 c4 08          	add    $0x8,%rsp
  401955:	c3                   	retq   

0000000000401956 <start_farm>:
  401956:	b8 01 00 00 00       	mov    $0x1,%eax
  40195b:	c3                   	retq   

000000000040195c <addval_365>:
  40195c:	8d 87 75 b1 58 c3    	lea    -0x3ca74e8b(%rdi),%eax
  401962:	c3                   	retq   

0000000000401963 <addval_400>:
  401963:	8d 87 58 94 90 90    	lea    -0x6f6f6ba8(%rdi),%eax
  401969:	c3                   	retq   

000000000040196a <setval_445>:
  40196a:	c7 07 48 a9 c7 90    	movl   $0x90c7a948,(%rdi)
  401970:	c3                   	retq   

0000000000401971 <setval_182>:
  401971:	c7 07 42 48 89 c7    	movl   $0xc7894842,(%rdi)
  401977:	c3                   	retq   

0000000000401978 <setval_141>:
  401978:	c7 07 48 89 c7 90    	movl   $0x90c78948,(%rdi)
  40197e:	c3                   	retq   

000000000040197f <setval_201>:
  40197f:	c7 07 58 90 94 c3    	movl   $0xc3949058,(%rdi)
  401985:	c3                   	retq   

0000000000401986 <getval_167>:
  401986:	b8 0c 58 90 90       	mov    $0x9090580c,%eax
  40198b:	c3                   	retq   

000000000040198c <getval_451>:
  40198c:	b8 48 89 c7 c7       	mov    $0xc7c78948,%eax
  401991:	c3                   	retq   

0000000000401992 <mid_farm>:
  401992:	b8 01 00 00 00       	mov    $0x1,%eax
  401997:	c3                   	retq   

0000000000401998 <add_xy>:
  401998:	48 8d 04 37          	lea    (%rdi,%rsi,1),%rax
  40199c:	c3                   	retq   

000000000040199d <addval_290>:
  40199d:	8d 87 89 ce a4 c0    	lea    -0x3f5b3177(%rdi),%eax
  4019a3:	c3                   	retq   

00000000004019a4 <setval_294>:
  4019a4:	c7 07 48 8b e0 c3    	movl   $0xc3e08b48,(%rdi)
  4019aa:	c3                   	retq   

00000000004019ab <addval_406>:
  4019ab:	8d 87 89 d1 90 c3    	lea    -0x3c6f2e77(%rdi),%eax
  4019b1:	c3                   	retq   

00000000004019b2 <addval_184>:
  4019b2:	8d 87 89 c2 90 90    	lea    -0x6f6f3d77(%rdi),%eax
  4019b8:	c3                   	retq   

00000000004019b9 <getval_356>:
  4019b9:	b8 7f 48 89 e0       	mov    $0xe089487f,%eax
  4019be:	c3                   	retq   

00000000004019bf <setval_196>:
  4019bf:	c7 07 89 c2 18 c9    	movl   $0xc918c289,(%rdi)
  4019c5:	c3                   	retq   

00000000004019c6 <setval_130>:
  4019c6:	c7 07 89 d1 c3 95    	movl   $0x95c3d189,(%rdi)
  4019cc:	c3                   	retq   

00000000004019cd <getval_206>:
  4019cd:	b8 89 c2 20 d2       	mov    $0xd220c289,%eax
  4019d2:	c3                   	retq   

00000000004019d3 <addval_285>:
  4019d3:	8d 87 89 c2 18 c9    	lea    -0x36e73d77(%rdi),%eax
  4019d9:	c3                   	retq   

00000000004019da <addval_207>:
  4019da:	8d 87 89 ce 20 db    	lea    -0x24df3177(%rdi),%eax
  4019e0:	c3                   	retq   

00000000004019e1 <setval_173>:
  4019e1:	c7 07 89 ce 28 d2    	movl   $0xd228ce89,(%rdi)
  4019e7:	c3                   	retq   

00000000004019e8 <setval_381>:
  4019e8:	c7 07 81 c2 08 db    	movl   $0xdb08c281,(%rdi)
  4019ee:	c3                   	retq   

00000000004019ef <getval_337>:
  4019ef:	b8 89 ce 48 c9       	mov    $0xc948ce89,%eax
  4019f4:	c3                   	retq   

00000000004019f5 <addval_460>:
  4019f5:	8d 87 81 c2 38 c9    	lea    -0x36c73d7f(%rdi),%eax
  4019fb:	c3                   	retq   

00000000004019fc <setval_456>:
  4019fc:	c7 07 92 f6 8b d1    	movl   $0xd18bf692,(%rdi)
  401a02:	c3                   	retq   

0000000000401a03 <setval_306>:
  401a03:	c7 07 99 d1 90 90    	movl   $0x9090d199,(%rdi)
  401a09:	c3                   	retq   

0000000000401a0a <setval_308>:
  401a0a:	c7 07 48 89 e0 92    	movl   $0x92e08948,(%rdi)
  401a10:	c3                   	retq   

0000000000401a11 <addval_101>:
  401a11:	8d 87 d2 f8 8b d1    	lea    -0x2e74072e(%rdi),%eax
  401a17:	c3                   	retq   

0000000000401a18 <addval_397>:
  401a18:	8d 87 89 d1 00 db    	lea    -0x24ff2e77(%rdi),%eax
  401a1e:	c3                   	retq   

0000000000401a1f <addval_402>:
  401a1f:	8d 87 4a 89 e0 90    	lea    -0x6f1f76b6(%rdi),%eax
  401a25:	c3                   	retq   

0000000000401a26 <getval_222>:
  401a26:	b8 aa 09 ce 90       	mov    $0x90ce09aa,%eax
  401a2b:	c3                   	retq   

0000000000401a2c <addval_111>:
  401a2c:	8d 87 8d d1 08 db    	lea    -0x24f72e73(%rdi),%eax
  401a32:	c3                   	retq   

0000000000401a33 <getval_226>:
  401a33:	b8 09 ce 08 d2       	mov    $0xd208ce09,%eax
  401a38:	c3                   	retq   

0000000000401a39 <setval_412>:
  401a39:	c7 07 c8 89 e0 90    	movl   $0x90e089c8,(%rdi)
  401a3f:	c3                   	retq   

0000000000401a40 <getval_441>:
  401a40:	b8 40 89 e0 c3       	mov    $0xc3e08940,%eax
  401a45:	c3                   	retq   

0000000000401a46 <setval_473>:
  401a46:	c7 07 89 ce 00 c0    	movl   $0xc000ce89,(%rdi)
  401a4c:	c3                   	retq   

0000000000401a4d <addval_465>:
  401a4d:	8d 87 89 c2 91 c3    	lea    -0x3c6e3d77(%rdi),%eax
  401a53:	c3                   	retq   

0000000000401a54 <setval_129>:
  401a54:	c7 07 89 ce 20 c0    	movl   $0xc020ce89,(%rdi)
  401a5a:	c3                   	retq   

0000000000401a5b <getval_267>:
  401a5b:	b8 89 c2 a4 c0       	mov    $0xc0a4c289,%eax
  401a60:	c3                   	retq   

0000000000401a61 <getval_270>:
  401a61:	b8 48 89 e0 91       	mov    $0x91e08948,%eax
  401a66:	c3                   	retq   

0000000000401a67 <setval_455>:
  401a67:	c7 07 9f 89 d1 91    	movl   $0x91d1899f,(%rdi)
  401a6d:	c3                   	retq   

0000000000401a6e <setval_318>:
  401a6e:	c7 07 48 89 e0 c3    	movl   $0xc3e08948,(%rdi)
  401a74:	c3                   	retq   

0000000000401a75 <end_farm>:
  401a75:	b8 01 00 00 00       	mov    $0x1,%eax
  401a7a:	c3                   	retq   

0000000000401a7b <save_char>:
  401a7b:	8b 05 a3 46 20 00    	mov    0x2046a3(%rip),%eax        # 606124 <gets_cnt>
  401a81:	3d ff 03 00 00       	cmp    $0x3ff,%eax
  401a86:	7f 4a                	jg     401ad2 <save_char+0x57>
  401a88:	8d 14 40             	lea    (%rax,%rax,2),%edx
  401a8b:	89 f9                	mov    %edi,%ecx
  401a8d:	c0 e9 04             	shr    $0x4,%cl
  401a90:	4c 8d 05 09 1a 00 00 	lea    0x1a09(%rip),%r8        # 4034a0 <trans_char>
  401a97:	83 e1 0f             	and    $0xf,%ecx
  401a9a:	45 0f b6 0c 08       	movzbl (%r8,%rcx,1),%r9d
  401a9f:	48 8d 0d 7a 3a 20 00 	lea    0x203a7a(%rip),%rcx        # 605520 <gets_buf>
  401aa6:	48 63 f2             	movslq %edx,%rsi
  401aa9:	44 88 0c 31          	mov    %r9b,(%rcx,%rsi,1)
  401aad:	8d 72 01             	lea    0x1(%rdx),%esi
  401ab0:	83 e7 0f             	and    $0xf,%edi
  401ab3:	41 0f b6 3c 38       	movzbl (%r8,%rdi,1),%edi
  401ab8:	48 63 f6             	movslq %esi,%rsi
  401abb:	40 88 3c 31          	mov    %dil,(%rcx,%rsi,1)
  401abf:	83 c2 02             	add    $0x2,%edx
  401ac2:	48 63 d2             	movslq %edx,%rdx
  401ac5:	c6 04 11 20          	movb   $0x20,(%rcx,%rdx,1)
  401ac9:	83 c0 01             	add    $0x1,%eax
  401acc:	89 05 52 46 20 00    	mov    %eax,0x204652(%rip)        # 606124 <gets_cnt>
  401ad2:	f3 c3                	repz retq 

0000000000401ad4 <save_term>:
  401ad4:	8b 05 4a 46 20 00    	mov    0x20464a(%rip),%eax        # 606124 <gets_cnt>
  401ada:	8d 04 40             	lea    (%rax,%rax,2),%eax
  401add:	48 98                	cltq   
  401adf:	48 8d 15 3a 3a 20 00 	lea    0x203a3a(%rip),%rdx        # 605520 <gets_buf>
  401ae6:	c6 04 02 00          	movb   $0x0,(%rdx,%rax,1)
  401aea:	c3                   	retq   

0000000000401aeb <check_fail>:
  401aeb:	48 83 ec 08          	sub    $0x8,%rsp
  401aef:	0f be 35 32 46 20 00 	movsbl 0x204632(%rip),%esi        # 606128 <target_prefix>
  401af6:	48 8d 0d 23 3a 20 00 	lea    0x203a23(%rip),%rcx        # 605520 <gets_buf>
  401afd:	8b 15 f5 39 20 00    	mov    0x2039f5(%rip),%edx        # 6054f8 <check_level>
  401b03:	48 8d 3d 99 16 00 00 	lea    0x1699(%rip),%rdi        # 4031a3 <_IO_stdin_used+0x3b3>
  401b0a:	b8 00 00 00 00       	mov    $0x0,%eax
  401b0f:	e8 4c f1 ff ff       	callq  400c60 <printf@plt>
  401b14:	bf 01 00 00 00       	mov    $0x1,%edi
  401b19:	e8 92 f2 ff ff       	callq  400db0 <exit@plt>

0000000000401b1e <Gets>:
  401b1e:	41 54                	push   %r12
  401b20:	55                   	push   %rbp
  401b21:	53                   	push   %rbx
  401b22:	49 89 fc             	mov    %rdi,%r12
  401b25:	c7 05 f5 45 20 00 00 	movl   $0x0,0x2045f5(%rip)        # 606124 <gets_cnt>
  401b2c:	00 00 00 
  401b2f:	48 89 fb             	mov    %rdi,%rbx
  401b32:	eb 11                	jmp    401b45 <Gets+0x27>
  401b34:	48 8d 6b 01          	lea    0x1(%rbx),%rbp
  401b38:	88 03                	mov    %al,(%rbx)
  401b3a:	0f b6 f8             	movzbl %al,%edi
  401b3d:	e8 39 ff ff ff       	callq  401a7b <save_char>
  401b42:	48 89 eb             	mov    %rbp,%rbx
  401b45:	48 8b 3d a4 39 20 00 	mov    0x2039a4(%rip),%rdi        # 6054f0 <infile>
  401b4c:	e8 cf f1 ff ff       	callq  400d20 <_IO_getc@plt>
  401b51:	83 f8 ff             	cmp    $0xffffffff,%eax
  401b54:	74 05                	je     401b5b <Gets+0x3d>
  401b56:	83 f8 0a             	cmp    $0xa,%eax
  401b59:	75 d9                	jne    401b34 <Gets+0x16>
  401b5b:	c6 03 00             	movb   $0x0,(%rbx)
  401b5e:	b8 00 00 00 00       	mov    $0x0,%eax
  401b63:	e8 6c ff ff ff       	callq  401ad4 <save_term>
  401b68:	4c 89 e0             	mov    %r12,%rax
  401b6b:	5b                   	pop    %rbx
  401b6c:	5d                   	pop    %rbp
  401b6d:	41 5c                	pop    %r12
  401b6f:	c3                   	retq   

0000000000401b70 <notify_server>:
  401b70:	83 3d 91 39 20 00 00 	cmpl   $0x0,0x203991(%rip)        # 605508 <is_checker>
  401b77:	0f 85 de 00 00 00    	jne    401c5b <notify_server+0xeb>
  401b7d:	55                   	push   %rbp
  401b7e:	53                   	push   %rbx
  401b7f:	48 81 ec 08 40 00 00 	sub    $0x4008,%rsp
  401b86:	89 fb                	mov    %edi,%ebx
  401b88:	8b 05 96 45 20 00    	mov    0x204596(%rip),%eax        # 606124 <gets_cnt>
  401b8e:	83 c0 64             	add    $0x64,%eax
  401b91:	3d 00 20 00 00       	cmp    $0x2000,%eax
  401b96:	0f 8f c1 00 00 00    	jg     401c5d <notify_server+0xed>
  401b9c:	44 0f be 0d 84 45 20 	movsbl 0x204584(%rip),%r9d        # 606128 <target_prefix>
  401ba3:	00 
  401ba4:	83 3d dd 38 20 00 00 	cmpl   $0x0,0x2038dd(%rip)        # 605488 <notify>
  401bab:	0f 84 c7 00 00 00    	je     401c78 <notify_server+0x108>
  401bb1:	44 8b 05 48 39 20 00 	mov    0x203948(%rip),%r8d        # 605500 <authkey>
  401bb8:	85 db                	test   %ebx,%ebx
  401bba:	0f 84 c3 00 00 00    	je     401c83 <notify_server+0x113>
  401bc0:	48 8d 2d f2 15 00 00 	lea    0x15f2(%rip),%rbp        # 4031b9 <_IO_stdin_used+0x3c9>
  401bc7:	48 8d bc 24 00 20 00 	lea    0x2000(%rsp),%rdi
  401bce:	00 
  401bcf:	48 8d 05 4a 39 20 00 	lea    0x20394a(%rip),%rax        # 605520 <gets_buf>
  401bd6:	50                   	push   %rax
  401bd7:	56                   	push   %rsi
  401bd8:	48 89 e9             	mov    %rbp,%rcx
  401bdb:	8b 15 4f 35 20 00    	mov    0x20354f(%rip),%edx        # 605130 <target_id>
  401be1:	48 8d 35 db 15 00 00 	lea    0x15db(%rip),%rsi        # 4031c3 <_IO_stdin_used+0x3d3>
  401be8:	b8 00 00 00 00       	mov    $0x0,%eax
  401bed:	e8 ae f1 ff ff       	callq  400da0 <sprintf@plt>
  401bf2:	48 83 c4 10          	add    $0x10,%rsp
  401bf6:	83 3d 8b 38 20 00 00 	cmpl   $0x0,0x20388b(%rip)        # 605488 <notify>
  401bfd:	0f 84 b8 00 00 00    	je     401cbb <notify_server+0x14b>
  401c03:	85 db                	test   %ebx,%ebx
  401c05:	0f 84 a2 00 00 00    	je     401cad <notify_server+0x13d>
  401c0b:	48 8d 8c 24 00 20 00 	lea    0x2000(%rsp),%rcx
  401c12:	00 
  401c13:	49 89 e1             	mov    %rsp,%r9
  401c16:	41 b8 00 00 00 00    	mov    $0x0,%r8d
  401c1c:	48 8b 15 25 35 20 00 	mov    0x203525(%rip),%rdx        # 605148 <lab>
  401c23:	48 8b 35 26 35 20 00 	mov    0x203526(%rip),%rsi        # 605150 <course>
  401c2a:	48 8b 3d 0f 35 20 00 	mov    0x20350f(%rip),%rdi        # 605140 <user_id>
  401c31:	e8 6e 10 00 00       	callq  402ca4 <driver_post>
  401c36:	85 c0                	test   %eax,%eax
  401c38:	78 55                	js     401c8f <notify_server+0x11f>
  401c3a:	48 8d 3d c7 16 00 00 	lea    0x16c7(%rip),%rdi        # 403308 <_IO_stdin_used+0x518>
  401c41:	e8 ea ef ff ff       	callq  400c30 <puts@plt>
  401c46:	48 8d 3d 9e 15 00 00 	lea    0x159e(%rip),%rdi        # 4031eb <_IO_stdin_used+0x3fb>
  401c4d:	e8 de ef ff ff       	callq  400c30 <puts@plt>
  401c52:	48 81 c4 08 40 00 00 	add    $0x4008,%rsp
  401c59:	5b                   	pop    %rbx
  401c5a:	5d                   	pop    %rbp
  401c5b:	f3 c3                	repz retq 
  401c5d:	48 8d 3d 74 16 00 00 	lea    0x1674(%rip),%rdi        # 4032d8 <_IO_stdin_used+0x4e8>
  401c64:	b8 00 00 00 00       	mov    $0x0,%eax
  401c69:	e8 f2 ef ff ff       	callq  400c60 <printf@plt>
  401c6e:	bf 01 00 00 00       	mov    $0x1,%edi
  401c73:	e8 38 f1 ff ff       	callq  400db0 <exit@plt>
  401c78:	41 b8 ff ff ff ff    	mov    $0xffffffff,%r8d
  401c7e:	e9 35 ff ff ff       	jmpq   401bb8 <notify_server+0x48>
  401c83:	48 8d 2d 34 15 00 00 	lea    0x1534(%rip),%rbp        # 4031be <_IO_stdin_used+0x3ce>
  401c8a:	e9 38 ff ff ff       	jmpq   401bc7 <notify_server+0x57>
  401c8f:	48 89 e6             	mov    %rsp,%rsi
  401c92:	48 8d 3d 46 15 00 00 	lea    0x1546(%rip),%rdi        # 4031df <_IO_stdin_used+0x3ef>
  401c99:	b8 00 00 00 00       	mov    $0x0,%eax
  401c9e:	e8 bd ef ff ff       	callq  400c60 <printf@plt>
  401ca3:	bf 01 00 00 00       	mov    $0x1,%edi
  401ca8:	e8 03 f1 ff ff       	callq  400db0 <exit@plt>
  401cad:	48 8d 3d 41 15 00 00 	lea    0x1541(%rip),%rdi        # 4031f5 <_IO_stdin_used+0x405>
  401cb4:	e8 77 ef ff ff       	callq  400c30 <puts@plt>
  401cb9:	eb 97                	jmp    401c52 <notify_server+0xe2>
  401cbb:	48 89 ee             	mov    %rbp,%rsi
  401cbe:	48 8d 3d 7b 16 00 00 	lea    0x167b(%rip),%rdi        # 403340 <_IO_stdin_used+0x550>
  401cc5:	b8 00 00 00 00       	mov    $0x0,%eax
  401cca:	e8 91 ef ff ff       	callq  400c60 <printf@plt>
  401ccf:	48 8b 35 6a 34 20 00 	mov    0x20346a(%rip),%rsi        # 605140 <user_id>
  401cd6:	48 8d 3d 1f 15 00 00 	lea    0x151f(%rip),%rdi        # 4031fc <_IO_stdin_used+0x40c>
  401cdd:	b8 00 00 00 00       	mov    $0x0,%eax
  401ce2:	e8 79 ef ff ff       	callq  400c60 <printf@plt>
  401ce7:	48 8b 35 62 34 20 00 	mov    0x203462(%rip),%rsi        # 605150 <course>
  401cee:	48 8d 3d 14 15 00 00 	lea    0x1514(%rip),%rdi        # 403209 <_IO_stdin_used+0x419>
  401cf5:	b8 00 00 00 00       	mov    $0x0,%eax
  401cfa:	e8 61 ef ff ff       	callq  400c60 <printf@plt>
  401cff:	48 8b 35 42 34 20 00 	mov    0x203442(%rip),%rsi        # 605148 <lab>
  401d06:	48 8d 3d 08 15 00 00 	lea    0x1508(%rip),%rdi        # 403215 <_IO_stdin_used+0x425>
  401d0d:	b8 00 00 00 00       	mov    $0x0,%eax
  401d12:	e8 49 ef ff ff       	callq  400c60 <printf@plt>
  401d17:	48 8d b4 24 00 20 00 	lea    0x2000(%rsp),%rsi
  401d1e:	00 
  401d1f:	48 8d 3d f8 14 00 00 	lea    0x14f8(%rip),%rdi        # 40321e <_IO_stdin_used+0x42e>
  401d26:	b8 00 00 00 00       	mov    $0x0,%eax
  401d2b:	e8 30 ef ff ff       	callq  400c60 <printf@plt>
  401d30:	e9 1d ff ff ff       	jmpq   401c52 <notify_server+0xe2>

0000000000401d35 <validate>:
  401d35:	53                   	push   %rbx
  401d36:	89 fb                	mov    %edi,%ebx
  401d38:	83 3d c9 37 20 00 00 	cmpl   $0x0,0x2037c9(%rip)        # 605508 <is_checker>
  401d3f:	74 68                	je     401da9 <validate+0x74>
  401d41:	39 3d b5 37 20 00    	cmp    %edi,0x2037b5(%rip)        # 6054fc <vlevel>
  401d47:	75 2d                	jne    401d76 <validate+0x41>
  401d49:	8b 35 a9 37 20 00    	mov    0x2037a9(%rip),%esi        # 6054f8 <check_level>
  401d4f:	39 f7                	cmp    %esi,%edi
  401d51:	75 39                	jne    401d8c <validate+0x57>
  401d53:	0f be 35 ce 43 20 00 	movsbl 0x2043ce(%rip),%esi        # 606128 <target_prefix>
  401d5a:	48 8d 0d bf 37 20 00 	lea    0x2037bf(%rip),%rcx        # 605520 <gets_buf>
  401d61:	89 fa                	mov    %edi,%edx
  401d63:	48 8d 3d de 14 00 00 	lea    0x14de(%rip),%rdi        # 403248 <_IO_stdin_used+0x458>
  401d6a:	b8 00 00 00 00       	mov    $0x0,%eax
  401d6f:	e8 ec ee ff ff       	callq  400c60 <printf@plt>
  401d74:	5b                   	pop    %rbx
  401d75:	c3                   	retq   
  401d76:	48 8d 3d ad 14 00 00 	lea    0x14ad(%rip),%rdi        # 40322a <_IO_stdin_used+0x43a>
  401d7d:	e8 ae ee ff ff       	callq  400c30 <puts@plt>
  401d82:	b8 00 00 00 00       	mov    $0x0,%eax
  401d87:	e8 5f fd ff ff       	callq  401aeb <check_fail>
  401d8c:	89 fa                	mov    %edi,%edx
  401d8e:	48 8d 3d d3 15 00 00 	lea    0x15d3(%rip),%rdi        # 403368 <_IO_stdin_used+0x578>
  401d95:	b8 00 00 00 00       	mov    $0x0,%eax
  401d9a:	e8 c1 ee ff ff       	callq  400c60 <printf@plt>
  401d9f:	b8 00 00 00 00       	mov    $0x0,%eax
  401da4:	e8 42 fd ff ff       	callq  401aeb <check_fail>
  401da9:	3b 3d 4d 37 20 00    	cmp    0x20374d(%rip),%edi        # 6054fc <vlevel>
  401daf:	74 1a                	je     401dcb <validate+0x96>
  401db1:	48 8d 3d 72 14 00 00 	lea    0x1472(%rip),%rdi        # 40322a <_IO_stdin_used+0x43a>
  401db8:	e8 73 ee ff ff       	callq  400c30 <puts@plt>
  401dbd:	89 de                	mov    %ebx,%esi
  401dbf:	bf 00 00 00 00       	mov    $0x0,%edi
  401dc4:	e8 a7 fd ff ff       	callq  401b70 <notify_server>
  401dc9:	eb a9                	jmp    401d74 <validate+0x3f>
  401dcb:	0f be 15 56 43 20 00 	movsbl 0x204356(%rip),%edx        # 606128 <target_prefix>
  401dd2:	89 fe                	mov    %edi,%esi
  401dd4:	48 8d 3d b5 15 00 00 	lea    0x15b5(%rip),%rdi        # 403390 <_IO_stdin_used+0x5a0>
  401ddb:	b8 00 00 00 00       	mov    $0x0,%eax
  401de0:	e8 7b ee ff ff       	callq  400c60 <printf@plt>
  401de5:	89 de                	mov    %ebx,%esi
  401de7:	bf 01 00 00 00       	mov    $0x1,%edi
  401dec:	e8 7f fd ff ff       	callq  401b70 <notify_server>
  401df1:	eb 81                	jmp    401d74 <validate+0x3f>

0000000000401df3 <fail>:
  401df3:	48 83 ec 08          	sub    $0x8,%rsp
  401df7:	83 3d 0a 37 20 00 00 	cmpl   $0x0,0x20370a(%rip)        # 605508 <is_checker>
  401dfe:	75 11                	jne    401e11 <fail+0x1e>
  401e00:	89 fe                	mov    %edi,%esi
  401e02:	bf 00 00 00 00       	mov    $0x0,%edi
  401e07:	e8 64 fd ff ff       	callq  401b70 <notify_server>
  401e0c:	48 83 c4 08          	add    $0x8,%rsp
  401e10:	c3                   	retq   
  401e11:	b8 00 00 00 00       	mov    $0x0,%eax
  401e16:	e8 d0 fc ff ff       	callq  401aeb <check_fail>

0000000000401e1b <bushandler>:
  401e1b:	48 83 ec 08          	sub    $0x8,%rsp
  401e1f:	83 3d e2 36 20 00 00 	cmpl   $0x0,0x2036e2(%rip)        # 605508 <is_checker>
  401e26:	74 16                	je     401e3e <bushandler+0x23>
  401e28:	48 8d 3d 2e 14 00 00 	lea    0x142e(%rip),%rdi        # 40325d <_IO_stdin_used+0x46d>
  401e2f:	e8 fc ed ff ff       	callq  400c30 <puts@plt>
  401e34:	b8 00 00 00 00       	mov    $0x0,%eax
  401e39:	e8 ad fc ff ff       	callq  401aeb <check_fail>
  401e3e:	48 8d 3d 83 15 00 00 	lea    0x1583(%rip),%rdi        # 4033c8 <_IO_stdin_used+0x5d8>
  401e45:	e8 e6 ed ff ff       	callq  400c30 <puts@plt>
  401e4a:	48 8d 3d 16 14 00 00 	lea    0x1416(%rip),%rdi        # 403267 <_IO_stdin_used+0x477>
  401e51:	e8 da ed ff ff       	callq  400c30 <puts@plt>
  401e56:	be 00 00 00 00       	mov    $0x0,%esi
  401e5b:	bf 00 00 00 00       	mov    $0x0,%edi
  401e60:	e8 0b fd ff ff       	callq  401b70 <notify_server>
  401e65:	bf 01 00 00 00       	mov    $0x1,%edi
  401e6a:	e8 41 ef ff ff       	callq  400db0 <exit@plt>

0000000000401e6f <seghandler>:
  401e6f:	48 83 ec 08          	sub    $0x8,%rsp
  401e73:	83 3d 8e 36 20 00 00 	cmpl   $0x0,0x20368e(%rip)        # 605508 <is_checker>
  401e7a:	74 16                	je     401e92 <seghandler+0x23>
  401e7c:	48 8d 3d fa 13 00 00 	lea    0x13fa(%rip),%rdi        # 40327d <_IO_stdin_used+0x48d>
  401e83:	e8 a8 ed ff ff       	callq  400c30 <puts@plt>
  401e88:	b8 00 00 00 00       	mov    $0x0,%eax
  401e8d:	e8 59 fc ff ff       	callq  401aeb <check_fail>
  401e92:	48 8d 3d 4f 15 00 00 	lea    0x154f(%rip),%rdi        # 4033e8 <_IO_stdin_used+0x5f8>
  401e99:	e8 92 ed ff ff       	callq  400c30 <puts@plt>
  401e9e:	48 8d 3d c2 13 00 00 	lea    0x13c2(%rip),%rdi        # 403267 <_IO_stdin_used+0x477>
  401ea5:	e8 86 ed ff ff       	callq  400c30 <puts@plt>
  401eaa:	be 00 00 00 00       	mov    $0x0,%esi
  401eaf:	bf 00 00 00 00       	mov    $0x0,%edi
  401eb4:	e8 b7 fc ff ff       	callq  401b70 <notify_server>
  401eb9:	bf 01 00 00 00       	mov    $0x1,%edi
  401ebe:	e8 ed ee ff ff       	callq  400db0 <exit@plt>

0000000000401ec3 <illegalhandler>:
  401ec3:	48 83 ec 08          	sub    $0x8,%rsp
  401ec7:	83 3d 3a 36 20 00 00 	cmpl   $0x0,0x20363a(%rip)        # 605508 <is_checker>
  401ece:	74 16                	je     401ee6 <illegalhandler+0x23>
  401ed0:	48 8d 3d b9 13 00 00 	lea    0x13b9(%rip),%rdi        # 403290 <_IO_stdin_used+0x4a0>
  401ed7:	e8 54 ed ff ff       	callq  400c30 <puts@plt>
  401edc:	b8 00 00 00 00       	mov    $0x0,%eax
  401ee1:	e8 05 fc ff ff       	callq  401aeb <check_fail>
  401ee6:	48 8d 3d 23 15 00 00 	lea    0x1523(%rip),%rdi        # 403410 <_IO_stdin_used+0x620>
  401eed:	e8 3e ed ff ff       	callq  400c30 <puts@plt>
  401ef2:	48 8d 3d 6e 13 00 00 	lea    0x136e(%rip),%rdi        # 403267 <_IO_stdin_used+0x477>
  401ef9:	e8 32 ed ff ff       	callq  400c30 <puts@plt>
  401efe:	be 00 00 00 00       	mov    $0x0,%esi
  401f03:	bf 00 00 00 00       	mov    $0x0,%edi
  401f08:	e8 63 fc ff ff       	callq  401b70 <notify_server>
  401f0d:	bf 01 00 00 00       	mov    $0x1,%edi
  401f12:	e8 99 ee ff ff       	callq  400db0 <exit@plt>

0000000000401f17 <sigalrmhandler>:
  401f17:	48 83 ec 08          	sub    $0x8,%rsp
  401f1b:	83 3d e6 35 20 00 00 	cmpl   $0x0,0x2035e6(%rip)        # 605508 <is_checker>
  401f22:	74 16                	je     401f3a <sigalrmhandler+0x23>
  401f24:	48 8d 3d 79 13 00 00 	lea    0x1379(%rip),%rdi        # 4032a4 <_IO_stdin_used+0x4b4>
  401f2b:	e8 00 ed ff ff       	callq  400c30 <puts@plt>
  401f30:	b8 00 00 00 00       	mov    $0x0,%eax
  401f35:	e8 b1 fb ff ff       	callq  401aeb <check_fail>
  401f3a:	be 05 00 00 00       	mov    $0x5,%esi
  401f3f:	48 8d 3d fa 14 00 00 	lea    0x14fa(%rip),%rdi        # 403440 <_IO_stdin_used+0x650>
  401f46:	b8 00 00 00 00       	mov    $0x0,%eax
  401f4b:	e8 10 ed ff ff       	callq  400c60 <printf@plt>
  401f50:	be 00 00 00 00       	mov    $0x0,%esi
  401f55:	bf 00 00 00 00       	mov    $0x0,%edi
  401f5a:	e8 11 fc ff ff       	callq  401b70 <notify_server>
  401f5f:	bf 01 00 00 00       	mov    $0x1,%edi
  401f64:	e8 47 ee ff ff       	callq  400db0 <exit@plt>

0000000000401f69 <launch>:
  401f69:	55                   	push   %rbp
  401f6a:	48 89 e5             	mov    %rsp,%rbp
  401f6d:	48 89 fa             	mov    %rdi,%rdx
  401f70:	48 8d 47 1e          	lea    0x1e(%rdi),%rax
  401f74:	48 83 e0 f0          	and    $0xfffffffffffffff0,%rax
  401f78:	48 29 c4             	sub    %rax,%rsp
  401f7b:	48 8d 7c 24 0f       	lea    0xf(%rsp),%rdi
  401f80:	48 83 e7 f0          	and    $0xfffffffffffffff0,%rdi
  401f84:	be f4 00 00 00       	mov    $0xf4,%esi
  401f89:	e8 e2 ec ff ff       	callq  400c70 <memset@plt>
  401f8e:	48 8b 05 0b 35 20 00 	mov    0x20350b(%rip),%rax        # 6054a0 <stdin@@GLIBC_2.2.5>
  401f95:	48 39 05 54 35 20 00 	cmp    %rax,0x203554(%rip)        # 6054f0 <infile>
  401f9c:	74 2b                	je     401fc9 <launch+0x60>
  401f9e:	c7 05 54 35 20 00 00 	movl   $0x0,0x203554(%rip)        # 6054fc <vlevel>
  401fa5:	00 00 00 
  401fa8:	b8 00 00 00 00       	mov    $0x0,%eax
  401fad:	e8 7e f9 ff ff       	callq  401930 <test>
  401fb2:	83 3d 4f 35 20 00 00 	cmpl   $0x0,0x20354f(%rip)        # 605508 <is_checker>
  401fb9:	75 21                	jne    401fdc <launch+0x73>
  401fbb:	48 8d 3d 02 13 00 00 	lea    0x1302(%rip),%rdi        # 4032c4 <_IO_stdin_used+0x4d4>
  401fc2:	e8 69 ec ff ff       	callq  400c30 <puts@plt>
  401fc7:	c9                   	leaveq 
  401fc8:	c3                   	retq   
  401fc9:	48 8d 3d dc 12 00 00 	lea    0x12dc(%rip),%rdi        # 4032ac <_IO_stdin_used+0x4bc>
  401fd0:	b8 00 00 00 00       	mov    $0x0,%eax
  401fd5:	e8 86 ec ff ff       	callq  400c60 <printf@plt>
  401fda:	eb c2                	jmp    401f9e <launch+0x35>
  401fdc:	48 8d 3d d6 12 00 00 	lea    0x12d6(%rip),%rdi        # 4032b9 <_IO_stdin_used+0x4c9>
  401fe3:	e8 48 ec ff ff       	callq  400c30 <puts@plt>
  401fe8:	b8 00 00 00 00       	mov    $0x0,%eax
  401fed:	e8 f9 fa ff ff       	callq  401aeb <check_fail>

0000000000401ff2 <stable_launch>:
  401ff2:	53                   	push   %rbx
  401ff3:	48 89 3d ee 34 20 00 	mov    %rdi,0x2034ee(%rip)        # 6054e8 <global_offset>
  401ffa:	41 b9 00 00 00 00    	mov    $0x0,%r9d
  402000:	41 b8 00 00 00 00    	mov    $0x0,%r8d
  402006:	b9 32 01 00 00       	mov    $0x132,%ecx
  40200b:	ba 07 00 00 00       	mov    $0x7,%edx
  402010:	be 00 00 10 00       	mov    $0x100000,%esi
  402015:	bf 00 60 58 55       	mov    $0x55586000,%edi
  40201a:	e8 31 ec ff ff       	callq  400c50 <mmap@plt>
  40201f:	48 89 c3             	mov    %rax,%rbx
  402022:	48 3d 00 60 58 55    	cmp    $0x55586000,%rax
  402028:	75 43                	jne    40206d <stable_launch+0x7b>
  40202a:	48 8d 90 f8 ff 0f 00 	lea    0xffff8(%rax),%rdx
  402031:	48 89 15 f8 40 20 00 	mov    %rdx,0x2040f8(%rip)        # 606130 <stack_top>
  402038:	48 89 e0             	mov    %rsp,%rax
  40203b:	48 89 d4             	mov    %rdx,%rsp
  40203e:	48 89 c2             	mov    %rax,%rdx
  402041:	48 89 15 98 34 20 00 	mov    %rdx,0x203498(%rip)        # 6054e0 <global_save_stack>
  402048:	48 8b 3d 99 34 20 00 	mov    0x203499(%rip),%rdi        # 6054e8 <global_offset>
  40204f:	e8 15 ff ff ff       	callq  401f69 <launch>
  402054:	48 8b 05 85 34 20 00 	mov    0x203485(%rip),%rax        # 6054e0 <global_save_stack>
  40205b:	48 89 c4             	mov    %rax,%rsp
  40205e:	be 00 00 10 00       	mov    $0x100000,%esi
  402063:	48 89 df             	mov    %rbx,%rdi
  402066:	e8 d5 ec ff ff       	callq  400d40 <munmap@plt>
  40206b:	5b                   	pop    %rbx
  40206c:	c3                   	retq   
  40206d:	be 00 00 10 00       	mov    $0x100000,%esi
  402072:	48 89 c7             	mov    %rax,%rdi
  402075:	e8 c6 ec ff ff       	callq  400d40 <munmap@plt>
  40207a:	ba 00 60 58 55       	mov    $0x55586000,%edx
  40207f:	48 8d 35 f2 13 00 00 	lea    0x13f2(%rip),%rsi        # 403478 <_IO_stdin_used+0x688>
  402086:	48 8b 3d 33 34 20 00 	mov    0x203433(%rip),%rdi        # 6054c0 <stderr@@GLIBC_2.2.5>
  40208d:	b8 00 00 00 00       	mov    $0x0,%eax
  402092:	e8 39 ec ff ff       	callq  400cd0 <fprintf@plt>
  402097:	bf 01 00 00 00       	mov    $0x1,%edi
  40209c:	e8 0f ed ff ff       	callq  400db0 <exit@plt>

00000000004020a1 <rio_readinitb>:
  4020a1:	89 37                	mov    %esi,(%rdi)
  4020a3:	c7 47 04 00 00 00 00 	movl   $0x0,0x4(%rdi)
  4020aa:	48 8d 47 10          	lea    0x10(%rdi),%rax
  4020ae:	48 89 47 08          	mov    %rax,0x8(%rdi)
  4020b2:	c3                   	retq   

00000000004020b3 <sigalrm_handler>:
  4020b3:	48 83 ec 08          	sub    $0x8,%rsp
  4020b7:	ba 00 00 00 00       	mov    $0x0,%edx
  4020bc:	48 8d 35 ed 13 00 00 	lea    0x13ed(%rip),%rsi        # 4034b0 <trans_char+0x10>
  4020c3:	48 8b 3d f6 33 20 00 	mov    0x2033f6(%rip),%rdi        # 6054c0 <stderr@@GLIBC_2.2.5>
  4020ca:	b8 00 00 00 00       	mov    $0x0,%eax
  4020cf:	e8 fc eb ff ff       	callq  400cd0 <fprintf@plt>
  4020d4:	bf 01 00 00 00       	mov    $0x1,%edi
  4020d9:	e8 d2 ec ff ff       	callq  400db0 <exit@plt>

00000000004020de <urlencode>:
  4020de:	41 54                	push   %r12
  4020e0:	55                   	push   %rbp
  4020e1:	53                   	push   %rbx
  4020e2:	48 83 ec 10          	sub    $0x10,%rsp
  4020e6:	48 89 fb             	mov    %rdi,%rbx
  4020e9:	48 89 f5             	mov    %rsi,%rbp
  4020ec:	b8 00 00 00 00       	mov    $0x0,%eax
  4020f1:	48 c7 c1 ff ff ff ff 	mov    $0xffffffffffffffff,%rcx
  4020f8:	f2 ae                	repnz scas %es:(%rdi),%al
  4020fa:	48 f7 d1             	not    %rcx
  4020fd:	8d 41 ff             	lea    -0x1(%rcx),%eax
  402100:	eb 0e                	jmp    402110 <urlencode+0x32>
  402102:	88 55 00             	mov    %dl,0x0(%rbp)
  402105:	48 8d 6d 01          	lea    0x1(%rbp),%rbp
  402109:	48 83 c3 01          	add    $0x1,%rbx
  40210d:	44 89 e0             	mov    %r12d,%eax
  402110:	44 8d 60 ff          	lea    -0x1(%rax),%r12d
  402114:	85 c0                	test   %eax,%eax
  402116:	0f 84 95 00 00 00    	je     4021b1 <urlencode+0xd3>
  40211c:	0f b6 13             	movzbl (%rbx),%edx
  40211f:	80 fa 2a             	cmp    $0x2a,%dl
  402122:	0f 94 c1             	sete   %cl
  402125:	80 fa 2d             	cmp    $0x2d,%dl
  402128:	0f 94 c0             	sete   %al
  40212b:	08 c1                	or     %al,%cl
  40212d:	75 d3                	jne    402102 <urlencode+0x24>
  40212f:	80 fa 2e             	cmp    $0x2e,%dl
  402132:	74 ce                	je     402102 <urlencode+0x24>
  402134:	80 fa 5f             	cmp    $0x5f,%dl
  402137:	74 c9                	je     402102 <urlencode+0x24>
  402139:	8d 42 d0             	lea    -0x30(%rdx),%eax
  40213c:	3c 09                	cmp    $0x9,%al
  40213e:	76 c2                	jbe    402102 <urlencode+0x24>
  402140:	8d 42 bf             	lea    -0x41(%rdx),%eax
  402143:	3c 19                	cmp    $0x19,%al
  402145:	76 bb                	jbe    402102 <urlencode+0x24>
  402147:	8d 42 9f             	lea    -0x61(%rdx),%eax
  40214a:	3c 19                	cmp    $0x19,%al
  40214c:	76 b4                	jbe    402102 <urlencode+0x24>
  40214e:	80 fa 20             	cmp    $0x20,%dl
  402151:	74 4c                	je     40219f <urlencode+0xc1>
  402153:	8d 42 e0             	lea    -0x20(%rdx),%eax
  402156:	3c 5f                	cmp    $0x5f,%al
  402158:	0f 96 c1             	setbe  %cl
  40215b:	80 fa 09             	cmp    $0x9,%dl
  40215e:	0f 94 c0             	sete   %al
  402161:	08 c1                	or     %al,%cl
  402163:	74 47                	je     4021ac <urlencode+0xce>
  402165:	0f b6 d2             	movzbl %dl,%edx
  402168:	48 8d 7c 24 08       	lea    0x8(%rsp),%rdi
  40216d:	48 8d 35 d4 13 00 00 	lea    0x13d4(%rip),%rsi        # 403548 <trans_char+0xa8>
  402174:	b8 00 00 00 00       	mov    $0x0,%eax
  402179:	e8 22 ec ff ff       	callq  400da0 <sprintf@plt>
  40217e:	0f b6 44 24 08       	movzbl 0x8(%rsp),%eax
  402183:	88 45 00             	mov    %al,0x0(%rbp)
  402186:	0f b6 44 24 09       	movzbl 0x9(%rsp),%eax
  40218b:	88 45 01             	mov    %al,0x1(%rbp)
  40218e:	0f b6 44 24 0a       	movzbl 0xa(%rsp),%eax
  402193:	88 45 02             	mov    %al,0x2(%rbp)
  402196:	48 8d 6d 03          	lea    0x3(%rbp),%rbp
  40219a:	e9 6a ff ff ff       	jmpq   402109 <urlencode+0x2b>
  40219f:	c6 45 00 2b          	movb   $0x2b,0x0(%rbp)
  4021a3:	48 8d 6d 01          	lea    0x1(%rbp),%rbp
  4021a7:	e9 5d ff ff ff       	jmpq   402109 <urlencode+0x2b>
  4021ac:	b8 ff ff ff ff       	mov    $0xffffffff,%eax
  4021b1:	48 83 c4 10          	add    $0x10,%rsp
  4021b5:	5b                   	pop    %rbx
  4021b6:	5d                   	pop    %rbp
  4021b7:	41 5c                	pop    %r12
  4021b9:	c3                   	retq   

00000000004021ba <rio_writen>:
  4021ba:	41 55                	push   %r13
  4021bc:	41 54                	push   %r12
  4021be:	55                   	push   %rbp
  4021bf:	53                   	push   %rbx
  4021c0:	48 83 ec 08          	sub    $0x8,%rsp
  4021c4:	41 89 fc             	mov    %edi,%r12d
  4021c7:	49 89 d5             	mov    %rdx,%r13
  4021ca:	48 89 f5             	mov    %rsi,%rbp
  4021cd:	48 89 d3             	mov    %rdx,%rbx
  4021d0:	eb 06                	jmp    4021d8 <rio_writen+0x1e>
  4021d2:	48 29 c3             	sub    %rax,%rbx
  4021d5:	48 01 c5             	add    %rax,%rbp
  4021d8:	48 85 db             	test   %rbx,%rbx
  4021db:	74 24                	je     402201 <rio_writen+0x47>
  4021dd:	48 89 da             	mov    %rbx,%rdx
  4021e0:	48 89 ee             	mov    %rbp,%rsi
  4021e3:	44 89 e7             	mov    %r12d,%edi
  4021e6:	e8 55 ea ff ff       	callq  400c40 <write@plt>
  4021eb:	48 85 c0             	test   %rax,%rax
  4021ee:	7f e2                	jg     4021d2 <rio_writen+0x18>
  4021f0:	e8 fb e9 ff ff       	callq  400bf0 <__errno_location@plt>
  4021f5:	83 38 04             	cmpl   $0x4,(%rax)
  4021f8:	75 15                	jne    40220f <rio_writen+0x55>
  4021fa:	b8 00 00 00 00       	mov    $0x0,%eax
  4021ff:	eb d1                	jmp    4021d2 <rio_writen+0x18>
  402201:	4c 89 e8             	mov    %r13,%rax
  402204:	48 83 c4 08          	add    $0x8,%rsp
  402208:	5b                   	pop    %rbx
  402209:	5d                   	pop    %rbp
  40220a:	41 5c                	pop    %r12
  40220c:	41 5d                	pop    %r13
  40220e:	c3                   	retq   
  40220f:	48 c7 c0 ff ff ff ff 	mov    $0xffffffffffffffff,%rax
  402216:	eb ec                	jmp    402204 <rio_writen+0x4a>

0000000000402218 <rio_read>:
  402218:	41 55                	push   %r13
  40221a:	41 54                	push   %r12
  40221c:	55                   	push   %rbp
  40221d:	53                   	push   %rbx
  40221e:	48 83 ec 08          	sub    $0x8,%rsp
  402222:	48 89 fb             	mov    %rdi,%rbx
  402225:	49 89 f5             	mov    %rsi,%r13
  402228:	49 89 d4             	mov    %rdx,%r12
  40222b:	eb 0a                	jmp    402237 <rio_read+0x1f>
  40222d:	e8 be e9 ff ff       	callq  400bf0 <__errno_location@plt>
  402232:	83 38 04             	cmpl   $0x4,(%rax)
  402235:	75 5c                	jne    402293 <rio_read+0x7b>
  402237:	8b 6b 04             	mov    0x4(%rbx),%ebp
  40223a:	85 ed                	test   %ebp,%ebp
  40223c:	7f 24                	jg     402262 <rio_read+0x4a>
  40223e:	48 8d 6b 10          	lea    0x10(%rbx),%rbp
  402242:	ba 00 20 00 00       	mov    $0x2000,%edx
  402247:	48 89 ee             	mov    %rbp,%rsi
  40224a:	8b 3b                	mov    (%rbx),%edi
  40224c:	e8 4f ea ff ff       	callq  400ca0 <read@plt>
  402251:	89 43 04             	mov    %eax,0x4(%rbx)
  402254:	85 c0                	test   %eax,%eax
  402256:	78 d5                	js     40222d <rio_read+0x15>
  402258:	85 c0                	test   %eax,%eax
  40225a:	74 40                	je     40229c <rio_read+0x84>
  40225c:	48 89 6b 08          	mov    %rbp,0x8(%rbx)
  402260:	eb d5                	jmp    402237 <rio_read+0x1f>
  402262:	89 e8                	mov    %ebp,%eax
  402264:	49 39 c4             	cmp    %rax,%r12
  402267:	77 03                	ja     40226c <rio_read+0x54>
  402269:	44 89 e5             	mov    %r12d,%ebp
  40226c:	4c 63 e5             	movslq %ebp,%r12
  40226f:	48 8b 73 08          	mov    0x8(%rbx),%rsi
  402273:	4c 89 e2             	mov    %r12,%rdx
  402276:	4c 89 ef             	mov    %r13,%rdi
  402279:	e8 72 ea ff ff       	callq  400cf0 <memcpy@plt>
  40227e:	4c 01 63 08          	add    %r12,0x8(%rbx)
  402282:	29 6b 04             	sub    %ebp,0x4(%rbx)
  402285:	4c 89 e0             	mov    %r12,%rax
  402288:	48 83 c4 08          	add    $0x8,%rsp
  40228c:	5b                   	pop    %rbx
  40228d:	5d                   	pop    %rbp
  40228e:	41 5c                	pop    %r12
  402290:	41 5d                	pop    %r13
  402292:	c3                   	retq   
  402293:	48 c7 c0 ff ff ff ff 	mov    $0xffffffffffffffff,%rax
  40229a:	eb ec                	jmp    402288 <rio_read+0x70>
  40229c:	b8 00 00 00 00       	mov    $0x0,%eax
  4022a1:	eb e5                	jmp    402288 <rio_read+0x70>

00000000004022a3 <rio_readlineb>:
  4022a3:	41 55                	push   %r13
  4022a5:	41 54                	push   %r12
  4022a7:	55                   	push   %rbp
  4022a8:	53                   	push   %rbx
  4022a9:	48 83 ec 18          	sub    $0x18,%rsp
  4022ad:	49 89 fd             	mov    %rdi,%r13
  4022b0:	49 89 d4             	mov    %rdx,%r12
  4022b3:	48 89 f5             	mov    %rsi,%rbp
  4022b6:	bb 01 00 00 00       	mov    $0x1,%ebx
  4022bb:	4c 39 e3             	cmp    %r12,%rbx
  4022be:	73 47                	jae    402307 <rio_readlineb+0x64>
  4022c0:	48 8d 74 24 0f       	lea    0xf(%rsp),%rsi
  4022c5:	ba 01 00 00 00       	mov    $0x1,%edx
  4022ca:	4c 89 ef             	mov    %r13,%rdi
  4022cd:	e8 46 ff ff ff       	callq  402218 <rio_read>
  4022d2:	83 f8 01             	cmp    $0x1,%eax
  4022d5:	75 1c                	jne    4022f3 <rio_readlineb+0x50>
  4022d7:	48 8d 45 01          	lea    0x1(%rbp),%rax
  4022db:	0f b6 54 24 0f       	movzbl 0xf(%rsp),%edx
  4022e0:	88 55 00             	mov    %dl,0x0(%rbp)
  4022e3:	80 7c 24 0f 0a       	cmpb   $0xa,0xf(%rsp)
  4022e8:	74 1a                	je     402304 <rio_readlineb+0x61>
  4022ea:	48 83 c3 01          	add    $0x1,%rbx
  4022ee:	48 89 c5             	mov    %rax,%rbp
  4022f1:	eb c8                	jmp    4022bb <rio_readlineb+0x18>
  4022f3:	85 c0                	test   %eax,%eax
  4022f5:	75 22                	jne    402319 <rio_readlineb+0x76>
  4022f7:	48 83 fb 01          	cmp    $0x1,%rbx
  4022fb:	75 0a                	jne    402307 <rio_readlineb+0x64>
  4022fd:	b8 00 00 00 00       	mov    $0x0,%eax
  402302:	eb 0a                	jmp    40230e <rio_readlineb+0x6b>
  402304:	48 89 c5             	mov    %rax,%rbp
  402307:	c6 45 00 00          	movb   $0x0,0x0(%rbp)
  40230b:	48 89 d8             	mov    %rbx,%rax
  40230e:	48 83 c4 18          	add    $0x18,%rsp
  402312:	5b                   	pop    %rbx
  402313:	5d                   	pop    %rbp
  402314:	41 5c                	pop    %r12
  402316:	41 5d                	pop    %r13
  402318:	c3                   	retq   
  402319:	48 c7 c0 ff ff ff ff 	mov    $0xffffffffffffffff,%rax
  402320:	eb ec                	jmp    40230e <rio_readlineb+0x6b>

0000000000402322 <submitr>:
  402322:	41 57                	push   %r15
  402324:	41 56                	push   %r14
  402326:	41 55                	push   %r13
  402328:	41 54                	push   %r12
  40232a:	55                   	push   %rbp
  40232b:	53                   	push   %rbx
  40232c:	48 81 ec 58 a0 00 00 	sub    $0xa058,%rsp
  402333:	49 89 fd             	mov    %rdi,%r13
  402336:	89 74 24 14          	mov    %esi,0x14(%rsp)
  40233a:	49 89 d7             	mov    %rdx,%r15
  40233d:	48 89 4c 24 08       	mov    %rcx,0x8(%rsp)
  402342:	4c 89 44 24 18       	mov    %r8,0x18(%rsp)
  402347:	4d 89 ce             	mov    %r9,%r14
  40234a:	48 8b 9c 24 90 a0 00 	mov    0xa090(%rsp),%rbx
  402351:	00 
  402352:	c7 84 24 2c 20 00 00 	movl   $0x0,0x202c(%rsp)
  402359:	00 00 00 00 
  40235d:	ba 00 00 00 00       	mov    $0x0,%edx
  402362:	be 01 00 00 00       	mov    $0x1,%esi
  402367:	bf 02 00 00 00       	mov    $0x2,%edi
  40236c:	e8 5f ea ff ff       	callq  400dd0 <socket@plt>
  402371:	85 c0                	test   %eax,%eax
  402373:	0f 88 ca 01 00 00    	js     402543 <submitr+0x221>
  402379:	89 c5                	mov    %eax,%ebp
  40237b:	4c 89 ef             	mov    %r13,%rdi
  40237e:	e8 3d e9 ff ff       	callq  400cc0 <gethostbyname@plt>
  402383:	48 85 c0             	test   %rax,%rax
  402386:	0f 84 05 02 00 00    	je     402591 <submitr+0x26f>
  40238c:	4c 8d a4 24 40 a0 00 	lea    0xa040(%rsp),%r12
  402393:	00 
  402394:	48 c7 84 24 40 a0 00 	movq   $0x0,0xa040(%rsp)
  40239b:	00 00 00 00 00 
  4023a0:	48 c7 84 24 48 a0 00 	movq   $0x0,0xa048(%rsp)
  4023a7:	00 00 00 00 00 
  4023ac:	66 c7 84 24 40 a0 00 	movw   $0x2,0xa040(%rsp)
  4023b3:	00 02 00 
  4023b6:	48 8b 48 18          	mov    0x18(%rax),%rcx
  4023ba:	48 63 50 14          	movslq 0x14(%rax),%rdx
  4023be:	48 8d b4 24 44 a0 00 	lea    0xa044(%rsp),%rsi
  4023c5:	00 
  4023c6:	48 8b 39             	mov    (%rcx),%rdi
  4023c9:	e8 82 e9 ff ff       	callq  400d50 <bcopy@plt>
  4023ce:	0f b7 44 24 14       	movzwl 0x14(%rsp),%eax
  4023d3:	66 c1 c8 08          	ror    $0x8,%ax
  4023d7:	66 89 84 24 42 a0 00 	mov    %ax,0xa042(%rsp)
  4023de:	00 
  4023df:	ba 10 00 00 00       	mov    $0x10,%edx
  4023e4:	4c 89 e6             	mov    %r12,%rsi
  4023e7:	89 ef                	mov    %ebp,%edi
  4023e9:	e8 d2 e9 ff ff       	callq  400dc0 <connect@plt>
  4023ee:	85 c0                	test   %eax,%eax
  4023f0:	0f 88 02 02 00 00    	js     4025f8 <submitr+0x2d6>
  4023f6:	48 c7 c6 ff ff ff ff 	mov    $0xffffffffffffffff,%rsi
  4023fd:	b8 00 00 00 00       	mov    $0x0,%eax
  402402:	48 89 f1             	mov    %rsi,%rcx
  402405:	4c 89 f7             	mov    %r14,%rdi
  402408:	f2 ae                	repnz scas %es:(%rdi),%al
  40240a:	48 f7 d1             	not    %rcx
  40240d:	48 89 ca             	mov    %rcx,%rdx
  402410:	48 89 f1             	mov    %rsi,%rcx
  402413:	4c 89 ff             	mov    %r15,%rdi
  402416:	f2 ae                	repnz scas %es:(%rdi),%al
  402418:	48 f7 d1             	not    %rcx
  40241b:	49 89 c8             	mov    %rcx,%r8
  40241e:	48 89 f1             	mov    %rsi,%rcx
  402421:	48 8b 7c 24 08       	mov    0x8(%rsp),%rdi
  402426:	f2 ae                	repnz scas %es:(%rdi),%al
  402428:	48 f7 d1             	not    %rcx
  40242b:	4d 8d 44 08 fe       	lea    -0x2(%r8,%rcx,1),%r8
  402430:	48 89 f1             	mov    %rsi,%rcx
  402433:	48 8b 7c 24 18       	mov    0x18(%rsp),%rdi
  402438:	f2 ae                	repnz scas %es:(%rdi),%al
  40243a:	48 89 c8             	mov    %rcx,%rax
  40243d:	48 f7 d0             	not    %rax
  402440:	49 8d 4c 00 ff       	lea    -0x1(%r8,%rax,1),%rcx
  402445:	48 8d 44 52 fd       	lea    -0x3(%rdx,%rdx,2),%rax
  40244a:	48 8d 84 01 80 00 00 	lea    0x80(%rcx,%rax,1),%rax
  402451:	00 
  402452:	48 3d 00 20 00 00    	cmp    $0x2000,%rax
  402458:	0f 87 f3 01 00 00    	ja     402651 <submitr+0x32f>
  40245e:	48 8d b4 24 30 40 00 	lea    0x4030(%rsp),%rsi
  402465:	00 
  402466:	b9 00 04 00 00       	mov    $0x400,%ecx
  40246b:	b8 00 00 00 00       	mov    $0x0,%eax
  402470:	48 89 f7             	mov    %rsi,%rdi
  402473:	f3 48 ab             	rep stos %rax,%es:(%rdi)
  402476:	4c 89 f7             	mov    %r14,%rdi
  402479:	e8 60 fc ff ff       	callq  4020de <urlencode>
  40247e:	85 c0                	test   %eax,%eax
  402480:	0f 88 3d 02 00 00    	js     4026c3 <submitr+0x3a1>
  402486:	4c 8d a4 24 30 60 00 	lea    0x6030(%rsp),%r12
  40248d:	00 
  40248e:	4d 89 e9             	mov    %r13,%r9
  402491:	4c 8d 84 24 30 40 00 	lea    0x4030(%rsp),%r8
  402498:	00 
  402499:	4c 89 f9             	mov    %r15,%rcx
  40249c:	48 8b 54 24 08       	mov    0x8(%rsp),%rdx
  4024a1:	48 8d 35 30 10 00 00 	lea    0x1030(%rip),%rsi        # 4034d8 <trans_char+0x38>
  4024a8:	4c 89 e7             	mov    %r12,%rdi
  4024ab:	b8 00 00 00 00       	mov    $0x0,%eax
  4024b0:	e8 eb e8 ff ff       	callq  400da0 <sprintf@plt>
  4024b5:	b8 00 00 00 00       	mov    $0x0,%eax
  4024ba:	48 c7 c1 ff ff ff ff 	mov    $0xffffffffffffffff,%rcx
  4024c1:	4c 89 e7             	mov    %r12,%rdi
  4024c4:	f2 ae                	repnz scas %es:(%rdi),%al
  4024c6:	48 f7 d1             	not    %rcx
  4024c9:	48 8d 51 ff          	lea    -0x1(%rcx),%rdx
  4024cd:	4c 89 e6             	mov    %r12,%rsi
  4024d0:	89 ef                	mov    %ebp,%edi
  4024d2:	e8 e3 fc ff ff       	callq  4021ba <rio_writen>
  4024d7:	48 85 c0             	test   %rax,%rax
  4024da:	0f 88 6d 02 00 00    	js     40274d <submitr+0x42b>
  4024e0:	4c 8d a4 24 30 80 00 	lea    0x8030(%rsp),%r12
  4024e7:	00 
  4024e8:	89 ee                	mov    %ebp,%esi
  4024ea:	4c 89 e7             	mov    %r12,%rdi
  4024ed:	e8 af fb ff ff       	callq  4020a1 <rio_readinitb>
  4024f2:	48 8d b4 24 30 60 00 	lea    0x6030(%rsp),%rsi
  4024f9:	00 
  4024fa:	ba 00 20 00 00       	mov    $0x2000,%edx
  4024ff:	4c 89 e7             	mov    %r12,%rdi
  402502:	e8 9c fd ff ff       	callq  4022a3 <rio_readlineb>
  402507:	48 85 c0             	test   %rax,%rax
  40250a:	0f 8e ab 02 00 00    	jle    4027bb <submitr+0x499>
  402510:	48 8d 8c 24 2c 20 00 	lea    0x202c(%rsp),%rcx
  402517:	00 
  402518:	48 8d 94 24 30 20 00 	lea    0x2030(%rsp),%rdx
  40251f:	00 
  402520:	48 8d bc 24 30 60 00 	lea    0x6030(%rsp),%rdi
  402527:	00 
  402528:	4c 8d 44 24 20       	lea    0x20(%rsp),%r8
  40252d:	48 8d 35 1b 10 00 00 	lea    0x101b(%rip),%rsi        # 40354f <trans_char+0xaf>
  402534:	b8 00 00 00 00       	mov    $0x0,%eax
  402539:	e8 f2 e7 ff ff       	callq  400d30 <__isoc99_sscanf@plt>
  40253e:	e9 9f 03 00 00       	jmpq   4028e2 <submitr+0x5c0>
  402543:	48 b8 45 72 72 6f 72 	movabs $0x43203a726f727245,%rax
  40254a:	3a 20 43 
  40254d:	48 89 03             	mov    %rax,(%rbx)
  402550:	48 b8 6c 69 65 6e 74 	movabs $0x6e7520746e65696c,%rax
  402557:	20 75 6e 
  40255a:	48 89 43 08          	mov    %rax,0x8(%rbx)
  40255e:	48 b8 61 62 6c 65 20 	movabs $0x206f7420656c6261,%rax
  402565:	74 6f 20 
  402568:	48 89 43 10          	mov    %rax,0x10(%rbx)
  40256c:	48 b8 63 72 65 61 74 	movabs $0x7320657461657263,%rax
  402573:	65 20 73 
  402576:	48 89 43 18          	mov    %rax,0x18(%rbx)
  40257a:	c7 43 20 6f 63 6b 65 	movl   $0x656b636f,0x20(%rbx)
  402581:	66 c7 43 24 74 00    	movw   $0x74,0x24(%rbx)
  402587:	b8 ff ff ff ff       	mov    $0xffffffff,%eax
  40258c:	e9 18 03 00 00       	jmpq   4028a9 <submitr+0x587>
  402591:	48 b8 45 72 72 6f 72 	movabs $0x44203a726f727245,%rax
  402598:	3a 20 44 
  40259b:	48 89 03             	mov    %rax,(%rbx)
  40259e:	48 b8 4e 53 20 69 73 	movabs $0x6e7520736920534e,%rax
  4025a5:	20 75 6e 
  4025a8:	48 89 43 08          	mov    %rax,0x8(%rbx)
  4025ac:	48 b8 61 62 6c 65 20 	movabs $0x206f7420656c6261,%rax
  4025b3:	74 6f 20 
  4025b6:	48 89 43 10          	mov    %rax,0x10(%rbx)
  4025ba:	48 b8 72 65 73 6f 6c 	movabs $0x2065766c6f736572,%rax
  4025c1:	76 65 20 
  4025c4:	48 89 43 18          	mov    %rax,0x18(%rbx)
  4025c8:	48 b8 73 65 72 76 65 	movabs $0x6120726576726573,%rax
  4025cf:	72 20 61 
  4025d2:	48 89 43 20          	mov    %rax,0x20(%rbx)
  4025d6:	c7 43 28 64 64 72 65 	movl   $0x65726464,0x28(%rbx)
  4025dd:	66 c7 43 2c 73 73    	movw   $0x7373,0x2c(%rbx)
  4025e3:	c6 43 2e 00          	movb   $0x0,0x2e(%rbx)
  4025e7:	89 ef                	mov    %ebp,%edi
  4025e9:	e8 a2 e6 ff ff       	callq  400c90 <close@plt>
  4025ee:	b8 ff ff ff ff       	mov    $0xffffffff,%eax
  4025f3:	e9 b1 02 00 00       	jmpq   4028a9 <submitr+0x587>
  4025f8:	48 b8 45 72 72 6f 72 	movabs $0x55203a726f727245,%rax
  4025ff:	3a 20 55 
  402602:	48 89 03             	mov    %rax,(%rbx)
  402605:	48 b8 6e 61 62 6c 65 	movabs $0x6f7420656c62616e,%rax
  40260c:	20 74 6f 
  40260f:	48 89 43 08          	mov    %rax,0x8(%rbx)
  402613:	48 b8 20 63 6f 6e 6e 	movabs $0x7463656e6e6f6320,%rax
  40261a:	65 63 74 
  40261d:	48 89 43 10          	mov    %rax,0x10(%rbx)
  402621:	48 b8 20 74 6f 20 74 	movabs $0x20656874206f7420,%rax
  402628:	68 65 20 
  40262b:	48 89 43 18          	mov    %rax,0x18(%rbx)
  40262f:	c7 43 20 73 65 72 76 	movl   $0x76726573,0x20(%rbx)
  402636:	66 c7 43 24 65 72    	movw   $0x7265,0x24(%rbx)
  40263c:	c6 43 26 00          	movb   $0x0,0x26(%rbx)
  402640:	89 ef                	mov    %ebp,%edi
  402642:	e8 49 e6 ff ff       	callq  400c90 <close@plt>
  402647:	b8 ff ff ff ff       	mov    $0xffffffff,%eax
  40264c:	e9 58 02 00 00       	jmpq   4028a9 <submitr+0x587>
  402651:	48 b8 45 72 72 6f 72 	movabs $0x52203a726f727245,%rax
  402658:	3a 20 52 
  40265b:	48 89 03             	mov    %rax,(%rbx)
  40265e:	48 b8 65 73 75 6c 74 	movabs $0x747320746c757365,%rax
  402665:	20 73 74 
  402668:	48 89 43 08          	mov    %rax,0x8(%rbx)
  40266c:	48 b8 72 69 6e 67 20 	movabs $0x6f6f7420676e6972,%rax
  402673:	74 6f 6f 
  402676:	48 89 43 10          	mov    %rax,0x10(%rbx)
  40267a:	48 b8 20 6c 61 72 67 	movabs $0x202e656772616c20,%rax
  402681:	65 2e 20 
  402684:	48 89 43 18          	mov    %rax,0x18(%rbx)
  402688:	48 b8 49 6e 63 72 65 	movabs $0x6573616572636e49,%rax
  40268f:	61 73 65 
  402692:	48 89 43 20          	mov    %rax,0x20(%rbx)
  402696:	48 b8 20 53 55 42 4d 	movabs $0x5254494d42555320,%rax
  40269d:	49 54 52 
  4026a0:	48 89 43 28          	mov    %rax,0x28(%rbx)
  4026a4:	48 b8 5f 4d 41 58 42 	movabs $0x46554258414d5f,%rax
  4026ab:	55 46 00 
  4026ae:	48 89 43 30          	mov    %rax,0x30(%rbx)
  4026b2:	89 ef                	mov    %ebp,%edi
  4026b4:	e8 d7 e5 ff ff       	callq  400c90 <close@plt>
  4026b9:	b8 ff ff ff ff       	mov    $0xffffffff,%eax
  4026be:	e9 e6 01 00 00       	jmpq   4028a9 <submitr+0x587>
  4026c3:	48 b8 45 72 72 6f 72 	movabs $0x52203a726f727245,%rax
  4026ca:	3a 20 52 
  4026cd:	48 89 03             	mov    %rax,(%rbx)
  4026d0:	48 b8 65 73 75 6c 74 	movabs $0x747320746c757365,%rax
  4026d7:	20 73 74 
  4026da:	48 89 43 08          	mov    %rax,0x8(%rbx)
  4026de:	48 b8 72 69 6e 67 20 	movabs $0x6e6f6320676e6972,%rax
  4026e5:	63 6f 6e 
  4026e8:	48 89 43 10          	mov    %rax,0x10(%rbx)
  4026ec:	48 b8 74 61 69 6e 73 	movabs $0x6e6120736e696174,%rax
  4026f3:	20 61 6e 
  4026f6:	48 89 43 18          	mov    %rax,0x18(%rbx)
  4026fa:	48 b8 20 69 6c 6c 65 	movabs $0x6c6167656c6c6920,%rax
  402701:	67 61 6c 
  402704:	48 89 43 20          	mov    %rax,0x20(%rbx)
  402708:	48 b8 20 6f 72 20 75 	movabs $0x72706e7520726f20,%rax
  40270f:	6e 70 72 
  402712:	48 89 43 28          	mov    %rax,0x28(%rbx)
  402716:	48 b8 69 6e 74 61 62 	movabs $0x20656c6261746e69,%rax
  40271d:	6c 65 20 
  402720:	48 89 43 30          	mov    %rax,0x30(%rbx)
  402724:	48 b8 63 68 61 72 61 	movabs $0x6574636172616863,%rax
  40272b:	63 74 65 
  40272e:	48 89 43 38          	mov    %rax,0x38(%rbx)
  402732:	66 c7 43 40 72 2e    	movw   $0x2e72,0x40(%rbx)
  402738:	c6 43 42 00          	movb   $0x0,0x42(%rbx)
  40273c:	89 ef                	mov    %ebp,%edi
  40273e:	e8 4d e5 ff ff       	callq  400c90 <close@plt>
  402743:	b8 ff ff ff ff       	mov    $0xffffffff,%eax
  402748:	e9 5c 01 00 00       	jmpq   4028a9 <submitr+0x587>
  40274d:	48 b8 45 72 72 6f 72 	movabs $0x43203a726f727245,%rax
  402754:	3a 20 43 
  402757:	48 89 03             	mov    %rax,(%rbx)
  40275a:	48 b8 6c 69 65 6e 74 	movabs $0x6e7520746e65696c,%rax
  402761:	20 75 6e 
  402764:	48 89 43 08          	mov    %rax,0x8(%rbx)
  402768:	48 b8 61 62 6c 65 20 	movabs $0x206f7420656c6261,%rax
  40276f:	74 6f 20 
  402772:	48 89 43 10          	mov    %rax,0x10(%rbx)
  402776:	48 b8 77 72 69 74 65 	movabs $0x6f74206574697277,%rax
  40277d:	20 74 6f 
  402780:	48 89 43 18          	mov    %rax,0x18(%rbx)
  402784:	48 b8 20 74 68 65 20 	movabs $0x7365722065687420,%rax
  40278b:	72 65 73 
  40278e:	48 89 43 20          	mov    %rax,0x20(%rbx)
  402792:	48 b8 75 6c 74 20 73 	movabs $0x7672657320746c75,%rax
  402799:	65 72 76 
  40279c:	48 89 43 28          	mov    %rax,0x28(%rbx)
  4027a0:	66 c7 43 30 65 72    	movw   $0x7265,0x30(%rbx)
  4027a6:	c6 43 32 00          	movb   $0x0,0x32(%rbx)
  4027aa:	89 ef                	mov    %ebp,%edi
  4027ac:	e8 df e4 ff ff       	callq  400c90 <close@plt>
  4027b1:	b8 ff ff ff ff       	mov    $0xffffffff,%eax
  4027b6:	e9 ee 00 00 00       	jmpq   4028a9 <submitr+0x587>
  4027bb:	48 b8 45 72 72 6f 72 	movabs $0x43203a726f727245,%rax
  4027c2:	3a 20 43 
  4027c5:	48 89 03             	mov    %rax,(%rbx)
  4027c8:	48 b8 6c 69 65 6e 74 	movabs $0x6e7520746e65696c,%rax
  4027cf:	20 75 6e 
  4027d2:	48 89 43 08          	mov    %rax,0x8(%rbx)
  4027d6:	48 b8 61 62 6c 65 20 	movabs $0x206f7420656c6261,%rax
  4027dd:	74 6f 20 
  4027e0:	48 89 43 10          	mov    %rax,0x10(%rbx)
  4027e4:	48 b8 72 65 61 64 20 	movabs $0x7269662064616572,%rax
  4027eb:	66 69 72 
  4027ee:	48 89 43 18          	mov    %rax,0x18(%rbx)
  4027f2:	48 b8 73 74 20 68 65 	movabs $0x6564616568207473,%rax
  4027f9:	61 64 65 
  4027fc:	48 89 43 20          	mov    %rax,0x20(%rbx)
  402800:	48 b8 72 20 66 72 6f 	movabs $0x72206d6f72662072,%rax
  402807:	6d 20 72 
  40280a:	48 89 43 28          	mov    %rax,0x28(%rbx)
  40280e:	48 b8 65 73 75 6c 74 	movabs $0x657320746c757365,%rax
  402815:	20 73 65 
  402818:	48 89 43 30          	mov    %rax,0x30(%rbx)
  40281c:	c7 43 38 72 76 65 72 	movl   $0x72657672,0x38(%rbx)
  402823:	c6 43 3c 00          	movb   $0x0,0x3c(%rbx)
  402827:	89 ef                	mov    %ebp,%edi
  402829:	e8 62 e4 ff ff       	callq  400c90 <close@plt>
  40282e:	b8 ff ff ff ff       	mov    $0xffffffff,%eax
  402833:	eb 74                	jmp    4028a9 <submitr+0x587>
  402835:	48 b8 45 72 72 6f 72 	movabs $0x43203a726f727245,%rax
  40283c:	3a 20 43 
  40283f:	48 89 03             	mov    %rax,(%rbx)
  402842:	48 b8 6c 69 65 6e 74 	movabs $0x6e7520746e65696c,%rax
  402849:	20 75 6e 
  40284c:	48 89 43 08          	mov    %rax,0x8(%rbx)
  402850:	48 b8 61 62 6c 65 20 	movabs $0x206f7420656c6261,%rax
  402857:	74 6f 20 
  40285a:	48 89 43 10          	mov    %rax,0x10(%rbx)
  40285e:	48 b8 72 65 61 64 20 	movabs $0x6165682064616572,%rax
  402865:	68 65 61 
  402868:	48 89 43 18          	mov    %rax,0x18(%rbx)
  40286c:	48 b8 64 65 72 73 20 	movabs $0x6f72662073726564,%rax
  402873:	66 72 6f 
  402876:	48 89 43 20          	mov    %rax,0x20(%rbx)
  40287a:	48 b8 6d 20 74 68 65 	movabs $0x657220656874206d,%rax
  402881:	20 72 65 
  402884:	48 89 43 28          	mov    %rax,0x28(%rbx)
  402888:	48 b8 73 75 6c 74 20 	movabs $0x72657320746c7573,%rax
  40288f:	73 65 72 
  402892:	48 89 43 30          	mov    %rax,0x30(%rbx)
  402896:	c7 43 38 76 65 72 00 	movl   $0x726576,0x38(%rbx)
  40289d:	89 ef                	mov    %ebp,%edi
  40289f:	e8 ec e3 ff ff       	callq  400c90 <close@plt>
  4028a4:	b8 ff ff ff ff       	mov    $0xffffffff,%eax
  4028a9:	48 81 c4 58 a0 00 00 	add    $0xa058,%rsp
  4028b0:	5b                   	pop    %rbx
  4028b1:	5d                   	pop    %rbp
  4028b2:	41 5c                	pop    %r12
  4028b4:	41 5d                	pop    %r13
  4028b6:	41 5e                	pop    %r14
  4028b8:	41 5f                	pop    %r15
  4028ba:	c3                   	retq   
  4028bb:	85 c0                	test   %eax,%eax
  4028bd:	74 51                	je     402910 <submitr+0x5ee>
  4028bf:	48 8d b4 24 30 60 00 	lea    0x6030(%rsp),%rsi
  4028c6:	00 
  4028c7:	48 8d bc 24 30 80 00 	lea    0x8030(%rsp),%rdi
  4028ce:	00 
  4028cf:	ba 00 20 00 00       	mov    $0x2000,%edx
  4028d4:	e8 ca f9 ff ff       	callq  4022a3 <rio_readlineb>
  4028d9:	48 85 c0             	test   %rax,%rax
  4028dc:	0f 8e 53 ff ff ff    	jle    402835 <submitr+0x513>
  4028e2:	0f b6 94 24 30 60 00 	movzbl 0x6030(%rsp),%edx
  4028e9:	00 
  4028ea:	b8 0d 00 00 00       	mov    $0xd,%eax
  4028ef:	29 d0                	sub    %edx,%eax
  4028f1:	75 c8                	jne    4028bb <submitr+0x599>
  4028f3:	0f b6 94 24 31 60 00 	movzbl 0x6031(%rsp),%edx
  4028fa:	00 
  4028fb:	b8 0a 00 00 00       	mov    $0xa,%eax
  402900:	29 d0                	sub    %edx,%eax
  402902:	75 b7                	jne    4028bb <submitr+0x599>
  402904:	0f b6 84 24 32 60 00 	movzbl 0x6032(%rsp),%eax
  40290b:	00 
  40290c:	f7 d8                	neg    %eax
  40290e:	eb ab                	jmp    4028bb <submitr+0x599>
  402910:	48 8d b4 24 30 60 00 	lea    0x6030(%rsp),%rsi
  402917:	00 
  402918:	48 8d bc 24 30 80 00 	lea    0x8030(%rsp),%rdi
  40291f:	00 
  402920:	ba 00 20 00 00       	mov    $0x2000,%edx
  402925:	e8 79 f9 ff ff       	callq  4022a3 <rio_readlineb>
  40292a:	48 85 c0             	test   %rax,%rax
  40292d:	7e 67                	jle    402996 <submitr+0x674>
  40292f:	8b 94 24 2c 20 00 00 	mov    0x202c(%rsp),%edx
  402936:	81 fa c8 00 00 00    	cmp    $0xc8,%edx
  40293c:	0f 85 d7 00 00 00    	jne    402a19 <submitr+0x6f7>
  402942:	48 8d b4 24 30 60 00 	lea    0x6030(%rsp),%rsi
  402949:	00 
  40294a:	48 89 df             	mov    %rbx,%rdi
  40294d:	e8 ce e2 ff ff       	callq  400c20 <strcpy@plt>
  402952:	89 ef                	mov    %ebp,%edi
  402954:	e8 37 e3 ff ff       	callq  400c90 <close@plt>
  402959:	0f b6 03             	movzbl (%rbx),%eax
  40295c:	ba 4f 00 00 00       	mov    $0x4f,%edx
  402961:	29 c2                	sub    %eax,%edx
  402963:	0f 85 da 00 00 00    	jne    402a43 <submitr+0x721>
  402969:	0f b6 4b 01          	movzbl 0x1(%rbx),%ecx
  40296d:	b8 4b 00 00 00       	mov    $0x4b,%eax
  402972:	29 c8                	sub    %ecx,%eax
  402974:	0f 85 cb 00 00 00    	jne    402a45 <submitr+0x723>
  40297a:	0f b6 4b 02          	movzbl 0x2(%rbx),%ecx
  40297e:	b8 0a 00 00 00       	mov    $0xa,%eax
  402983:	29 c8                	sub    %ecx,%eax
  402985:	0f 85 ba 00 00 00    	jne    402a45 <submitr+0x723>
  40298b:	0f b6 43 03          	movzbl 0x3(%rbx),%eax
  40298f:	f7 d8                	neg    %eax
  402991:	e9 af 00 00 00       	jmpq   402a45 <submitr+0x723>
  402996:	48 b8 45 72 72 6f 72 	movabs $0x43203a726f727245,%rax
  40299d:	3a 20 43 
  4029a0:	48 89 03             	mov    %rax,(%rbx)
  4029a3:	48 b8 6c 69 65 6e 74 	movabs $0x6e7520746e65696c,%rax
  4029aa:	20 75 6e 
  4029ad:	48 89 43 08          	mov    %rax,0x8(%rbx)
  4029b1:	48 b8 61 62 6c 65 20 	movabs $0x206f7420656c6261,%rax
  4029b8:	74 6f 20 
  4029bb:	48 89 43 10          	mov    %rax,0x10(%rbx)
  4029bf:	48 b8 72 65 61 64 20 	movabs $0x6174732064616572,%rax
  4029c6:	73 74 61 
  4029c9:	48 89 43 18          	mov    %rax,0x18(%rbx)
  4029cd:	48 b8 74 75 73 20 6d 	movabs $0x7373656d20737574,%rax
  4029d4:	65 73 73 
  4029d7:	48 89 43 20          	mov    %rax,0x20(%rbx)
  4029db:	48 b8 61 67 65 20 66 	movabs $0x6d6f726620656761,%rax
  4029e2:	72 6f 6d 
  4029e5:	48 89 43 28          	mov    %rax,0x28(%rbx)
  4029e9:	48 b8 20 72 65 73 75 	movabs $0x20746c7573657220,%rax
  4029f0:	6c 74 20 
  4029f3:	48 89 43 30          	mov    %rax,0x30(%rbx)
  4029f7:	c7 43 38 73 65 72 76 	movl   $0x76726573,0x38(%rbx)
  4029fe:	66 c7 43 3c 65 72    	movw   $0x7265,0x3c(%rbx)
  402a04:	c6 43 3e 00          	movb   $0x0,0x3e(%rbx)
  402a08:	89 ef                	mov    %ebp,%edi
  402a0a:	e8 81 e2 ff ff       	callq  400c90 <close@plt>
  402a0f:	b8 ff ff ff ff       	mov    $0xffffffff,%eax
  402a14:	e9 90 fe ff ff       	jmpq   4028a9 <submitr+0x587>
  402a19:	48 8d 4c 24 20       	lea    0x20(%rsp),%rcx
  402a1e:	48 8d 35 f3 0a 00 00 	lea    0xaf3(%rip),%rsi        # 403518 <trans_char+0x78>
  402a25:	48 89 df             	mov    %rbx,%rdi
  402a28:	b8 00 00 00 00       	mov    $0x0,%eax
  402a2d:	e8 6e e3 ff ff       	callq  400da0 <sprintf@plt>
  402a32:	89 ef                	mov    %ebp,%edi
  402a34:	e8 57 e2 ff ff       	callq  400c90 <close@plt>
  402a39:	b8 ff ff ff ff       	mov    $0xffffffff,%eax
  402a3e:	e9 66 fe ff ff       	jmpq   4028a9 <submitr+0x587>
  402a43:	89 d0                	mov    %edx,%eax
  402a45:	f7 d8                	neg    %eax
  402a47:	0f 84 5c fe ff ff    	je     4028a9 <submitr+0x587>
  402a4d:	b9 05 00 00 00       	mov    $0x5,%ecx
  402a52:	48 8d 3d 07 0b 00 00 	lea    0xb07(%rip),%rdi        # 403560 <trans_char+0xc0>
  402a59:	48 89 de             	mov    %rbx,%rsi
  402a5c:	f3 a6                	repz cmpsb %es:(%rdi),%ds:(%rsi)
  402a5e:	0f 97 c0             	seta   %al
  402a61:	0f 92 c1             	setb   %cl
  402a64:	29 c8                	sub    %ecx,%eax
  402a66:	0f be c0             	movsbl %al,%eax
  402a69:	85 c0                	test   %eax,%eax
  402a6b:	0f 84 38 fe ff ff    	je     4028a9 <submitr+0x587>
  402a71:	85 d2                	test   %edx,%edx
  402a73:	75 13                	jne    402a88 <submitr+0x766>
  402a75:	0f b6 43 01          	movzbl 0x1(%rbx),%eax
  402a79:	ba 4b 00 00 00       	mov    $0x4b,%edx
  402a7e:	29 c2                	sub    %eax,%edx
  402a80:	75 06                	jne    402a88 <submitr+0x766>
  402a82:	0f b6 53 02          	movzbl 0x2(%rbx),%edx
  402a86:	f7 da                	neg    %edx
  402a88:	89 d0                	mov    %edx,%eax
  402a8a:	f7 d8                	neg    %eax
  402a8c:	0f 84 17 fe ff ff    	je     4028a9 <submitr+0x587>
  402a92:	b8 ff ff ff ff       	mov    $0xffffffff,%eax
  402a97:	e9 0d fe ff ff       	jmpq   4028a9 <submitr+0x587>

0000000000402a9c <init_timeout>:
  402a9c:	85 ff                	test   %edi,%edi
  402a9e:	74 20                	je     402ac0 <init_timeout+0x24>
  402aa0:	53                   	push   %rbx
  402aa1:	89 fb                	mov    %edi,%ebx
  402aa3:	85 ff                	test   %edi,%edi
  402aa5:	78 1b                	js     402ac2 <init_timeout+0x26>
  402aa7:	48 8d 35 05 f6 ff ff 	lea    -0x9fb(%rip),%rsi        # 4020b3 <sigalrm_handler>
  402aae:	bf 0e 00 00 00       	mov    $0xe,%edi
  402ab3:	e8 f8 e1 ff ff       	callq  400cb0 <signal@plt>
  402ab8:	89 df                	mov    %ebx,%edi
  402aba:	e8 c1 e1 ff ff       	callq  400c80 <alarm@plt>
  402abf:	5b                   	pop    %rbx
  402ac0:	f3 c3                	repz retq 
  402ac2:	bb 00 00 00 00       	mov    $0x0,%ebx
  402ac7:	eb de                	jmp    402aa7 <init_timeout+0xb>

0000000000402ac9 <init_driver>:
  402ac9:	41 54                	push   %r12
  402acb:	55                   	push   %rbp
  402acc:	53                   	push   %rbx
  402acd:	48 83 ec 10          	sub    $0x10,%rsp
  402ad1:	48 89 fd             	mov    %rdi,%rbp
  402ad4:	be 01 00 00 00       	mov    $0x1,%esi
  402ad9:	bf 0d 00 00 00       	mov    $0xd,%edi
  402ade:	e8 cd e1 ff ff       	callq  400cb0 <signal@plt>
  402ae3:	be 01 00 00 00       	mov    $0x1,%esi
  402ae8:	bf 1d 00 00 00       	mov    $0x1d,%edi
  402aed:	e8 be e1 ff ff       	callq  400cb0 <signal@plt>
  402af2:	be 01 00 00 00       	mov    $0x1,%esi
  402af7:	bf 1d 00 00 00       	mov    $0x1d,%edi
  402afc:	e8 af e1 ff ff       	callq  400cb0 <signal@plt>
  402b01:	ba 00 00 00 00       	mov    $0x0,%edx
  402b06:	be 01 00 00 00       	mov    $0x1,%esi
  402b0b:	bf 02 00 00 00       	mov    $0x2,%edi
  402b10:	e8 bb e2 ff ff       	callq  400dd0 <socket@plt>
  402b15:	85 c0                	test   %eax,%eax
  402b17:	0f 88 80 00 00 00    	js     402b9d <init_driver+0xd4>
  402b1d:	89 c3                	mov    %eax,%ebx
  402b1f:	48 8d 3d 3f 0a 00 00 	lea    0xa3f(%rip),%rdi        # 403565 <trans_char+0xc5>
  402b26:	e8 95 e1 ff ff       	callq  400cc0 <gethostbyname@plt>
  402b2b:	48 85 c0             	test   %rax,%rax
  402b2e:	0f 84 b5 00 00 00    	je     402be9 <init_driver+0x120>
  402b34:	48 c7 04 24 00 00 00 	movq   $0x0,(%rsp)
  402b3b:	00 
  402b3c:	48 c7 44 24 08 00 00 	movq   $0x0,0x8(%rsp)
  402b43:	00 00 
  402b45:	66 c7 04 24 02 00    	movw   $0x2,(%rsp)
  402b4b:	48 8b 48 18          	mov    0x18(%rax),%rcx
  402b4f:	48 63 50 14          	movslq 0x14(%rax),%rdx
  402b53:	48 8d 74 24 04       	lea    0x4(%rsp),%rsi
  402b58:	48 8b 39             	mov    (%rcx),%rdi
  402b5b:	e8 f0 e1 ff ff       	callq  400d50 <bcopy@plt>
  402b60:	66 c7 44 24 02 3c a4 	movw   $0xa43c,0x2(%rsp)
  402b67:	ba 10 00 00 00       	mov    $0x10,%edx
  402b6c:	48 89 e6             	mov    %rsp,%rsi
  402b6f:	89 df                	mov    %ebx,%edi
  402b71:	e8 4a e2 ff ff       	callq  400dc0 <connect@plt>
  402b76:	85 c0                	test   %eax,%eax
  402b78:	0f 88 d3 00 00 00    	js     402c51 <init_driver+0x188>
  402b7e:	89 df                	mov    %ebx,%edi
  402b80:	e8 0b e1 ff ff       	callq  400c90 <close@plt>
  402b85:	66 c7 45 00 4f 4b    	movw   $0x4b4f,0x0(%rbp)
  402b8b:	c6 45 02 00          	movb   $0x0,0x2(%rbp)
  402b8f:	b8 00 00 00 00       	mov    $0x0,%eax
  402b94:	48 83 c4 10          	add    $0x10,%rsp
  402b98:	5b                   	pop    %rbx
  402b99:	5d                   	pop    %rbp
  402b9a:	41 5c                	pop    %r12
  402b9c:	c3                   	retq   
  402b9d:	48 b8 45 72 72 6f 72 	movabs $0x43203a726f727245,%rax
  402ba4:	3a 20 43 
  402ba7:	48 89 45 00          	mov    %rax,0x0(%rbp)
  402bab:	48 b8 6c 69 65 6e 74 	movabs $0x6e7520746e65696c,%rax
  402bb2:	20 75 6e 
  402bb5:	48 89 45 08          	mov    %rax,0x8(%rbp)
  402bb9:	48 b8 61 62 6c 65 20 	movabs $0x206f7420656c6261,%rax
  402bc0:	74 6f 20 
  402bc3:	48 89 45 10          	mov    %rax,0x10(%rbp)
  402bc7:	48 b8 63 72 65 61 74 	movabs $0x7320657461657263,%rax
  402bce:	65 20 73 
  402bd1:	48 89 45 18          	mov    %rax,0x18(%rbp)
  402bd5:	c7 45 20 6f 63 6b 65 	movl   $0x656b636f,0x20(%rbp)
  402bdc:	66 c7 45 24 74 00    	movw   $0x74,0x24(%rbp)
  402be2:	b8 ff ff ff ff       	mov    $0xffffffff,%eax
  402be7:	eb ab                	jmp    402b94 <init_driver+0xcb>
  402be9:	48 b8 45 72 72 6f 72 	movabs $0x44203a726f727245,%rax
  402bf0:	3a 20 44 
  402bf3:	48 89 45 00          	mov    %rax,0x0(%rbp)
  402bf7:	48 b8 4e 53 20 69 73 	movabs $0x6e7520736920534e,%rax
  402bfe:	20 75 6e 
  402c01:	48 89 45 08          	mov    %rax,0x8(%rbp)
  402c05:	48 b8 61 62 6c 65 20 	movabs $0x206f7420656c6261,%rax
  402c0c:	74 6f 20 
  402c0f:	48 89 45 10          	mov    %rax,0x10(%rbp)
  402c13:	48 b8 72 65 73 6f 6c 	movabs $0x2065766c6f736572,%rax
  402c1a:	76 65 20 
  402c1d:	48 89 45 18          	mov    %rax,0x18(%rbp)
  402c21:	48 b8 73 65 72 76 65 	movabs $0x6120726576726573,%rax
  402c28:	72 20 61 
  402c2b:	48 89 45 20          	mov    %rax,0x20(%rbp)
  402c2f:	c7 45 28 64 64 72 65 	movl   $0x65726464,0x28(%rbp)
  402c36:	66 c7 45 2c 73 73    	movw   $0x7373,0x2c(%rbp)
  402c3c:	c6 45 2e 00          	movb   $0x0,0x2e(%rbp)
  402c40:	89 df                	mov    %ebx,%edi
  402c42:	e8 49 e0 ff ff       	callq  400c90 <close@plt>
  402c47:	b8 ff ff ff ff       	mov    $0xffffffff,%eax
  402c4c:	e9 43 ff ff ff       	jmpq   402b94 <init_driver+0xcb>
  402c51:	48 b8 45 72 72 6f 72 	movabs $0x55203a726f727245,%rax
  402c58:	3a 20 55 
  402c5b:	48 89 45 00          	mov    %rax,0x0(%rbp)
  402c5f:	48 b8 6e 61 62 6c 65 	movabs $0x6f7420656c62616e,%rax
  402c66:	20 74 6f 
  402c69:	48 89 45 08          	mov    %rax,0x8(%rbp)
  402c6d:	48 b8 20 63 6f 6e 6e 	movabs $0x7463656e6e6f6320,%rax
  402c74:	65 63 74 
  402c77:	48 89 45 10          	mov    %rax,0x10(%rbp)
  402c7b:	48 b8 20 74 6f 20 73 	movabs $0x76726573206f7420,%rax
  402c82:	65 72 76 
  402c85:	48 89 45 18          	mov    %rax,0x18(%rbp)
  402c89:	66 c7 45 20 65 72    	movw   $0x7265,0x20(%rbp)
  402c8f:	c6 45 22 00          	movb   $0x0,0x22(%rbp)
  402c93:	89 df                	mov    %ebx,%edi
  402c95:	e8 f6 df ff ff       	callq  400c90 <close@plt>
  402c9a:	b8 ff ff ff ff       	mov    $0xffffffff,%eax
  402c9f:	e9 f0 fe ff ff       	jmpq   402b94 <init_driver+0xcb>

0000000000402ca4 <driver_post>:
  402ca4:	53                   	push   %rbx
  402ca5:	4c 89 cb             	mov    %r9,%rbx
  402ca8:	45 85 c0             	test   %r8d,%r8d
  402cab:	75 18                	jne    402cc5 <driver_post+0x21>
  402cad:	48 85 ff             	test   %rdi,%rdi
  402cb0:	74 05                	je     402cb7 <driver_post+0x13>
  402cb2:	80 3f 00             	cmpb   $0x0,(%rdi)
  402cb5:	75 32                	jne    402ce9 <driver_post+0x45>
  402cb7:	66 c7 03 4f 4b       	movw   $0x4b4f,(%rbx)
  402cbc:	c6 43 02 00          	movb   $0x0,0x2(%rbx)
  402cc0:	44 89 c0             	mov    %r8d,%eax
  402cc3:	5b                   	pop    %rbx
  402cc4:	c3                   	retq   
  402cc5:	48 89 ce             	mov    %rcx,%rsi
  402cc8:	48 8d 3d a4 08 00 00 	lea    0x8a4(%rip),%rdi        # 403573 <trans_char+0xd3>
  402ccf:	b8 00 00 00 00       	mov    $0x0,%eax
  402cd4:	e8 87 df ff ff       	callq  400c60 <printf@plt>
  402cd9:	66 c7 03 4f 4b       	movw   $0x4b4f,(%rbx)
  402cde:	c6 43 02 00          	movb   $0x0,0x2(%rbx)
  402ce2:	b8 00 00 00 00       	mov    $0x0,%eax
  402ce7:	eb da                	jmp    402cc3 <driver_post+0x1f>
  402ce9:	48 83 ec 08          	sub    $0x8,%rsp
  402ced:	41 51                	push   %r9
  402cef:	49 89 c9             	mov    %rcx,%r9
  402cf2:	49 89 d0             	mov    %rdx,%r8
  402cf5:	48 89 f9             	mov    %rdi,%rcx
  402cf8:	48 89 f2             	mov    %rsi,%rdx
  402cfb:	be a4 3c 00 00       	mov    $0x3ca4,%esi
  402d00:	48 8d 3d 5e 08 00 00 	lea    0x85e(%rip),%rdi        # 403565 <trans_char+0xc5>
  402d07:	e8 16 f6 ff ff       	callq  402322 <submitr>
  402d0c:	48 83 c4 10          	add    $0x10,%rsp
  402d10:	eb b1                	jmp    402cc3 <driver_post+0x1f>

0000000000402d12 <check>:
  402d12:	89 f8                	mov    %edi,%eax
  402d14:	c1 e8 1c             	shr    $0x1c,%eax
  402d17:	85 c0                	test   %eax,%eax
  402d19:	74 1d                	je     402d38 <check+0x26>
  402d1b:	b9 00 00 00 00       	mov    $0x0,%ecx
  402d20:	83 f9 1f             	cmp    $0x1f,%ecx
  402d23:	7f 0d                	jg     402d32 <check+0x20>
  402d25:	89 f8                	mov    %edi,%eax
  402d27:	d3 e8                	shr    %cl,%eax
  402d29:	3c 0a                	cmp    $0xa,%al
  402d2b:	74 11                	je     402d3e <check+0x2c>
  402d2d:	83 c1 08             	add    $0x8,%ecx
  402d30:	eb ee                	jmp    402d20 <check+0xe>
  402d32:	b8 01 00 00 00       	mov    $0x1,%eax
  402d37:	c3                   	retq   
  402d38:	b8 00 00 00 00       	mov    $0x0,%eax
  402d3d:	c3                   	retq   
  402d3e:	b8 00 00 00 00       	mov    $0x0,%eax
  402d43:	c3                   	retq   

0000000000402d44 <gencookie>:
  402d44:	53                   	push   %rbx
  402d45:	83 c7 01             	add    $0x1,%edi
  402d48:	e8 b3 de ff ff       	callq  400c00 <srandom@plt>
  402d4d:	e8 be df ff ff       	callq  400d10 <random@plt>
  402d52:	89 c3                	mov    %eax,%ebx
  402d54:	89 c7                	mov    %eax,%edi
  402d56:	e8 b7 ff ff ff       	callq  402d12 <check>
  402d5b:	85 c0                	test   %eax,%eax
  402d5d:	74 ee                	je     402d4d <gencookie+0x9>
  402d5f:	89 d8                	mov    %ebx,%eax
  402d61:	5b                   	pop    %rbx
  402d62:	c3                   	retq   
  402d63:	66 2e 0f 1f 84 00 00 	nopw   %cs:0x0(%rax,%rax,1)
  402d6a:	00 00 00 
  402d6d:	0f 1f 00             	nopl   (%rax)

0000000000402d70 <__libc_csu_init>:
  402d70:	41 57                	push   %r15
  402d72:	41 56                	push   %r14
  402d74:	41 89 ff             	mov    %edi,%r15d
  402d77:	41 55                	push   %r13
  402d79:	41 54                	push   %r12
  402d7b:	4c 8d 25 86 20 20 00 	lea    0x202086(%rip),%r12        # 604e08 <__frame_dummy_init_array_entry>
  402d82:	55                   	push   %rbp
  402d83:	48 8d 2d 86 20 20 00 	lea    0x202086(%rip),%rbp        # 604e10 <__init_array_end>
  402d8a:	53                   	push   %rbx
  402d8b:	49 89 f6             	mov    %rsi,%r14
  402d8e:	49 89 d5             	mov    %rdx,%r13
  402d91:	4c 29 e5             	sub    %r12,%rbp
  402d94:	48 83 ec 08          	sub    $0x8,%rsp
  402d98:	48 c1 fd 03          	sar    $0x3,%rbp
  402d9c:	e8 0f de ff ff       	callq  400bb0 <_init>
  402da1:	48 85 ed             	test   %rbp,%rbp
  402da4:	74 20                	je     402dc6 <__libc_csu_init+0x56>
  402da6:	31 db                	xor    %ebx,%ebx
  402da8:	0f 1f 84 00 00 00 00 	nopl   0x0(%rax,%rax,1)
  402daf:	00 
  402db0:	4c 89 ea             	mov    %r13,%rdx
  402db3:	4c 89 f6             	mov    %r14,%rsi
  402db6:	44 89 ff             	mov    %r15d,%edi
  402db9:	41 ff 14 dc          	callq  *(%r12,%rbx,8)
  402dbd:	48 83 c3 01          	add    $0x1,%rbx
  402dc1:	48 39 dd             	cmp    %rbx,%rbp
  402dc4:	75 ea                	jne    402db0 <__libc_csu_init+0x40>
  402dc6:	48 83 c4 08          	add    $0x8,%rsp
  402dca:	5b                   	pop    %rbx
  402dcb:	5d                   	pop    %rbp
  402dcc:	41 5c                	pop    %r12
  402dce:	41 5d                	pop    %r13
  402dd0:	41 5e                	pop    %r14
  402dd2:	41 5f                	pop    %r15
  402dd4:	c3                   	retq   
  402dd5:	90                   	nop
  402dd6:	66 2e 0f 1f 84 00 00 	nopw   %cs:0x0(%rax,%rax,1)
  402ddd:	00 00 00 

0000000000402de0 <__libc_csu_fini>:
  402de0:	f3 c3                	repz retq 

Disassembly of section .fini:

0000000000402de4 <_fini>:
  402de4:	48 83 ec 08          	sub    $0x8,%rsp
  402de8:	48 83 c4 08          	add    $0x8,%rsp
  402dec:	c3                   	retq   
